Certificate:
    Data:
        Version: 3 (0x2)
        Serial Number: 19 (0x13)
        Signature Algorithm: md5WithRSAEncryption
        Issuer: C=DE, ST=Bayern, L=Munich, O=Home, OU=Apache WSS4J, CN=Werner
        Validity
            Not Before: Apr 24 10:34:38 2009 GMT
            Not After : Apr 22 10:34:38 2019 GMT
        Subject: C=IE, ST=Leinster, L=Dublin, O=Apache, OU=WSS4J, CN=Colm
        Subject Public Key Info:
            Public Key Algorithm: rsaEncryption
            RSA Public Key: (1024 bit)
                Modulus (1024 bit):
                    00:91:05:87:f8:1d:f6:63:46:fd:52:34:47:25:ff:
                    67:57:bf:d8:1f:42:96:ea:10:f5:f9:d3:22:d1:be:
                    6f:72:88:37:96:d9:bf:0d:d1:c1:0d:6b:f4:ba:1a:
                    5d:a4:9c:cb:04:bc:e5:b0:0e:94:89:1d:5e:d9:50:
                    86:72:6e:71:cb:e3:6d:72:d6:63:d0:cf:8e:61:1e:
                    24:58:89:61:95:ac:22:89:0d:80:33:03:58:72:94:
                    e4:c4:70:ea:ee:a0:67:48:57:a6:47:8e:86:27:25:
                    d8:20:f1:c9:a2:31:4a:c1:fe:d4:57:39:12:c4:1f:
                    e5:92:5d:78:f5:dd:38:f3:b5
                Exponent: 65537 (0x10001)
        X509v3 extensions:
            X509v3 Basic Constraints: 
                CA:FALSE
            Netscape Comment: 
                OpenSSL Generated Certificate
            X509v3 Subject Key Identifier: 
                11:7F:5F:33:D6:CE:38:B0:9D:87:C9:77:EF:6F:6C:85:08:11:B1:20
            X509v3 Authority Key Identifier: 
                keyid:56:17:EF:F6:6B:8B:59:FE:23:19:68:DE:78:C0:E1:4D:67:7D:D0:66
                DirName:/C=DE/ST=Bayern/L=Munich/O=Home/OU=Apache WSS4J/CN=Werner
                serial:8D:E1:2C:0A:69:11:77:D2

    Signature Algorithm: md5WithRSAEncryption
        b5:48:11:79:ac:bc:aa:09:43:96:01:71:65:48:99:8c:1d:14:
        6c:92:6f:0f:84:6e:b1:87:66:90:c8:58:c3:45:e2:0b:1e:cd:
        75:ac:d8:36:58:9c:e4:59:1b:aa:e7:74:d4:93:73:be:cb:fe:
        fd:78:dd:91:a5:ef:d0:5b:1f:97:73:c5:d9:66:00:5d:3e:c7:
        3e:2d:b1:ac:ba:85:77:99:38:58:9a:20:00:d5:0f:e2:26:a3:
        a6:9a:d8:d8:99:2e:c1:6b:ce:a4:f8:53:01:62:2e:e9:27:9d:
        22:7c:ab:1d:90:dc:26:50:be:88:32:8e:3e:18:04:7a:cb:09:
        35:04
-----BEGIN CERTIFICATE-----
MIIDNDCCAp2gAwIBAgIBEzANBgkqhkiG9w0BAQQFADBmMQswCQYDVQQGEwJERTEP
MA0GA1UECBMGQmF5ZXJuMQ8wDQYDVQQHEwZNdW5pY2gxDTALBgNVBAoTBEhvbWUx
FTATBgNVBAsTDEFwYWNoZSBXU1M0SjEPMA0GA1UEAxMGV2VybmVyMB4XDTA5MDQy
NDEwMzQzOFoXDTE5MDQyMjEwMzQzOFowYTELMAkGA1UEBhMCSUUxETAPBgNVBAgT
CExlaW5zdGVyMQ8wDQYDVQQHEwZEdWJsaW4xDzANBgNVBAoTBkFwYWNoZTEOMAwG
A1UECxMFV1NTNEoxDTALBgNVBAMTBENvbG0wgZ8wDQYJKoZIhvcNAQEBBQADgY0A
MIGJAoGBAJEFh/gd9mNG/VI0RyX/Z1e/2B9CluoQ9fnTItG+b3KIN5bZvw3RwQ1r
9LoaXaScywS85bAOlIkdXtlQhnJuccvjbXLWY9DPjmEeJFiJYZWsIokNgDMDWHKU
5MRw6u6gZ0hXpkeOhicl2CDxyaIxSsH+1Fc5EsQf5ZJdePXdOPO1AgMBAAGjgfYw
gfMwCQYDVR0TBAIwADAsBglghkgBhvhCAQ0EHxYdT3BlblNTTCBHZW5lcmF0ZWQg
Q2VydGlmaWNhdGUwHQYDVR0OBBYEFBF/XzPWzjiwnYfJd+9vbIUIEbEgMIGYBgNV
HSMEgZAwgY2AFFYX7/Zri1n+Ixlo3njA4U1nfdBmoWqkaDBmMQswCQYDVQQGEwJE
RTEPMA0GA1UECBMGQmF5ZXJuMQ8wDQYDVQQHEwZNdW5pY2gxDTALBgNVBAoTBEhv
bWUxFTATBgNVBAsTDEFwYWNoZSBXU1M0SjEPMA0GA1UEAxMGV2VybmVyggkAjeEs
CmkRd9IwDQYJKoZIhvcNAQEEBQADgYEAtUgReay8qglDlgFxZUiZjB0UbJJvD4Ru
sYdmkMhYw0XiCx7NdazYNlic5Fkbqud01JNzvsv+/XjdkaXv0Fsfl3PF2WYAXT7H
Pi2xrLqFd5k4WJogANUP4iajpprY2JkuwWvOpPhTAWIu6SedInyrHZDcJlC+iDKO
PhgEessJNQQ=
-----END CERTIFICATE-----
