Certificate:
    Data:
        Version: 3 (0x2)
        Serial Number: 18 (0x12)
        Signature Algorithm: md5WithRSAEncryption
        Issuer: C=DE, ST=Bayern, L=Munich, O=Home, OU=Apache WSS4J, CN=Werner
        Validity
            Not Before: Apr 10 09:41:09 2009 GMT
            Not After : Apr  8 09:41:09 2019 GMT
        Subject: C=IE, ST=Leinster, L=Dublin, O=Apache, OU=WSS4J, CN=Colm
        Subject Public Key Info:
            Public Key Algorithm: rsaEncryption
            RSA Public Key: (1024 bit)
                Modulus (1024 bit):
                    00:91:05:87:f8:1d:f6:63:46:fd:52:34:47:25:ff:
                    67:57:bf:d8:1f:42:96:ea:10:f5:f9:d3:22:d1:be:
                    6f:72:88:37:96:d9:bf:0d:d1:c1:0d:6b:f4:ba:1a:
                    5d:a4:9c:cb:04:bc:e5:b0:0e:94:89:1d:5e:d9:50:
                    86:72:6e:71:cb:e3:6d:72:d6:63:d0:cf:8e:61:1e:
                    24:58:89:61:95:ac:22:89:0d:80:33:03:58:72:94:
                    e4:c4:70:ea:ee:a0:67:48:57:a6:47:8e:86:27:25:
                    d8:20:f1:c9:a2:31:4a:c1:fe:d4:57:39:12:c4:1f:
                    e5:92:5d:78:f5:dd:38:f3:b5
                Exponent: 65537 (0x10001)
        X509v3 extensions:
            X509v3 Basic Constraints: 
                CA:FALSE
            Netscape Comment: 
                OpenSSL Generated Certificate
            X509v3 Subject Key Identifier: 
                11:7F:5F:33:D6:CE:38:B0:9D:87:C9:77:EF:6F:6C:85:08:11:B1:20
            X509v3 Authority Key Identifier: 
                keyid:2B:83:7C:A1:7D:26:0F:D0:2C:F6:1B:CF:D0:D5:5E:A1:9B:AF:91:5A
                DirName:/C=DE/ST=Bayern/L=Munich/O=Home/OU=Apache WSS4J/CN=Werner
                serial:DF:03:2C:56:D6:F5:09:DB

    Signature Algorithm: md5WithRSAEncryption
        91:d1:57:49:84:7d:c0:4d:96:ac:d2:aa:d5:71:73:11:05:41:
        d0:59:d3:65:f0:ad:bc:76:50:4b:6f:ca:56:b2:05:05:d4:7b:
        aa:30:9b:3f:80:45:52:f8:54:fb:96:58:f5:ad:c8:70:a4:c5:
        d4:fe:f4:2b:a7:9c:a4:56:af:e1:ae:fa:b2:98:73:45:a2:e9:
        72:51:77:f0:81:81:fa:cf:01:99:40:8f:09:4d:5f:de:68:c2:
        d7:44:d4:21:da:04:5a:b7:55:1c:ed:ca:7e:33:bd:6d:da:e1:
        14:ec:8d:a8:4a:13:26:38:cc:fc:45:b5:55:68:cb:04:a6:00:
        9a:3a
-----BEGIN CERTIFICATE-----
MIIDNDCCAp2gAwIBAgIBEjANBgkqhkiG9w0BAQQFADBmMQswCQYDVQQGEwJERTEP
MA0GA1UECBMGQmF5ZXJuMQ8wDQYDVQQHEwZNdW5pY2gxDTALBgNVBAoTBEhvbWUx
FTATBgNVBAsTDEFwYWNoZSBXU1M0SjEPMA0GA1UEAxMGV2VybmVyMB4XDTA5MDQx
MDA5NDEwOVoXDTE5MDQwODA5NDEwOVowYTELMAkGA1UEBhMCSUUxETAPBgNVBAgT
CExlaW5zdGVyMQ8wDQYDVQQHEwZEdWJsaW4xDzANBgNVBAoTBkFwYWNoZTEOMAwG
A1UECxMFV1NTNEoxDTALBgNVBAMTBENvbG0wgZ8wDQYJKoZIhvcNAQEBBQADgY0A
MIGJAoGBAJEFh/gd9mNG/VI0RyX/Z1e/2B9CluoQ9fnTItG+b3KIN5bZvw3RwQ1r
9LoaXaScywS85bAOlIkdXtlQhnJuccvjbXLWY9DPjmEeJFiJYZWsIokNgDMDWHKU
5MRw6u6gZ0hXpkeOhicl2CDxyaIxSsH+1Fc5EsQf5ZJdePXdOPO1AgMBAAGjgfYw
gfMwCQYDVR0TBAIwADAsBglghkgBhvhCAQ0EHxYdT3BlblNTTCBHZW5lcmF0ZWQg
Q2VydGlmaWNhdGUwHQYDVR0OBBYEFBF/XzPWzjiwnYfJd+9vbIUIEbEgMIGYBgNV
HSMEgZAwgY2AFCuDfKF9Jg/QLPYbz9DVXqGbr5FaoWqkaDBmMQswCQYDVQQGEwJE
RTEPMA0GA1UECBMGQmF5ZXJuMQ8wDQYDVQQHEwZNdW5pY2gxDTALBgNVBAoTBEhv
bWUxFTATBgNVBAsTDEFwYWNoZSBXU1M0SjEPMA0GA1UEAxMGV2VybmVyggkA3wMs
Vtb1CdswDQYJKoZIhvcNAQEEBQADgYEAkdFXSYR9wE2WrNKq1XFzEQVB0FnTZfCt
vHZQS2/KVrIFBdR7qjCbP4BFUvhU+5ZY9a3IcKTF1P70K6ecpFav4a76sphzRaLp
clF38IGB+s8BmUCPCU1f3mjC10TUIdoEWrdVHO3KfjO9bdrhFOyNqEoTJjjM/EW1
VWjLBKYAmjo=
-----END CERTIFICATE-----
