Certificate:
    Data:
        Version: 3 (0x2)
        Serial Number: 27 (0x1b)
    Signature Algorithm: sha256WithRSAEncryption
        Issuer: C=DE, ST=Bayern, L=Munich, O=Home, OU=Apache WSS4J, CN=Werner
        Validity
            Not Before: Sep  9 14:08:43 2015 GMT
            Not After : Sep  6 14:08:43 2025 GMT
        Subject: C=IE, ST=Leinster, L=Dublin, O=Apache, OU=WSS4J, CN=Colm
        Subject Public Key Info:
            Public Key Algorithm: rsaEncryption
                Public-Key: (2048 bit)
                Modulus:
                    00:92:4e:fa:e2:25:a5:6f:3f:78:16:88:81:3f:c0:
                    e8:78:39:ae:58:fc:57:b1:50:95:40:e9:ae:c2:a6:
                    7a:e5:61:5a:f4:af:2b:18:20:7c:e3:4c:e5:a7:17:
                    8f:74:1a:d6:3c:9a:89:94:1f:40:c4:0f:af:e6:95:
                    14:19:10:d0:3e:75:83:c8:10:32:07:89:53:af:73:
                    de:cd:f7:ea:be:ab:97:f5:72:59:7a:64:aa:c6:ac:
                    e4:01:2e:40:53:05:c4:92:9a:43:80:e0:45:0e:55:
                    ea:fa:48:14:2b:33:f8:9e:da:96:a8:fe:77:3c:e8:
                    a0:64:a9:95:8e:ad:21:ce:12:16:f5:55:34:63:ba:
                    63:0c:59:37:9d:6a:43:ed:ae:40:bc:91:00:ff:d7:
                    16:00:4c:d1:1a:48:9a:29:fd:7a:b1:83:39:d6:e0:
                    a1:1e:c7:15:42:07:b9:7f:79:7b:ee:58:f3:d9:03:
                    68:d7:6b:54:b2:09:e1:ce:32:a8:ca:2b:f3:03:3b:
                    28:6d:5d:72:20:b2:8b:de:2d:6c:bc:28:d7:9d:a0:
                    a5:98:17:84:dd:69:a4:7f:aa:26:c0:17:91:6f:1a:
                    3d:62:f5:62:49:c8:70:33:7d:d8:64:12:b6:9a:2e:
                    98:f3:a6:5c:84:a9:00:0d:a7:89:81:da:b8:26:be:
                    51:a9
                Exponent: 65537 (0x10001)
        X509v3 extensions:
            X509v3 Basic Constraints: 
                CA:FALSE
            Netscape Comment: 
                OpenSSL Generated Certificate
            X509v3 Subject Key Identifier: 
                48:C6:33:68:EF:F4:D8:B6:3D:DF:94:C2:6E:C9:F6:A7:E7:F2:80:5A
            X509v3 Authority Key Identifier: 
                keyid:56:17:EF:F6:6B:8B:59:FE:23:19:68:DE:78:C0:E1:4D:67:7D:D0:66
                DirName:/C=DE/ST=Bayern/L=Munich/O=Home/OU=Apache WSS4J/CN=Werner
                serial:8D:E1:2C:0A:69:11:77:D2

    Signature Algorithm: sha256WithRSAEncryption
         46:22:92:73:6f:73:20:f7:af:33:39:04:18:3a:c0:79:92:7a:
         eb:89:3f:43:94:4d:fb:c1:f7:b7:7a:a6:9d:07:85:4b:d1:d5:
         54:de:c2:6d:bc:72:7c:77:a5:d1:9c:93:60:5d:06:be:9d:0d:
         6c:4c:5a:74:46:cf:ca:e7:fb:dc:fa:f0:23:53:81:5c:5f:3f:
         00:33:4d:3e:37:2b:97:6c:1a:52:52:79:6a:ff:51:27:20:8a:
         de:e5:f5:09:c1:01:35:26:6e:04:a4:88:0e:f5:b2:f6:16:d6:
         6d:5b:50:e2:8b:55:f9:ae:9a:eb:f0:49:44:c2:67:10:ff:30:
         42:5f
-----BEGIN CERTIFICATE-----
MIIDuDCCAyGgAwIBAgIBGzANBgkqhkiG9w0BAQsFADBmMQswCQYDVQQGEwJERTEP
MA0GA1UECBMGQmF5ZXJuMQ8wDQYDVQQHEwZNdW5pY2gxDTALBgNVBAoTBEhvbWUx
FTATBgNVBAsTDEFwYWNoZSBXU1M0SjEPMA0GA1UEAxMGV2VybmVyMB4XDTE1MDkw
OTE0MDg0M1oXDTI1MDkwNjE0MDg0M1owYTELMAkGA1UEBhMCSUUxETAPBgNVBAgT
CExlaW5zdGVyMQ8wDQYDVQQHEwZEdWJsaW4xDzANBgNVBAoTBkFwYWNoZTEOMAwG
A1UECxMFV1NTNEoxDTALBgNVBAMTBENvbG0wggEiMA0GCSqGSIb3DQEBAQUAA4IB
DwAwggEKAoIBAQCSTvriJaVvP3gWiIE/wOh4Oa5Y/FexUJVA6a7CpnrlYVr0rysY
IHzjTOWnF490GtY8momUH0DED6/mlRQZENA+dYPIEDIHiVOvc97N9+q+q5f1cll6
ZKrGrOQBLkBTBcSSmkOA4EUOVer6SBQrM/ie2pao/nc86KBkqZWOrSHOEhb1VTRj
umMMWTedakPtrkC8kQD/1xYATNEaSJop/XqxgznW4KEexxVCB7l/eXvuWPPZA2jX
a1SyCeHOMqjKK/MDOyhtXXIgsoveLWy8KNedoKWYF4TdaaR/qibAF5FvGj1i9WJJ
yHAzfdhkEraaLpjzplyEqQANp4mB2rgmvlGpAgMBAAGjgfYwgfMwCQYDVR0TBAIw
ADAsBglghkgBhvhCAQ0EHxYdT3BlblNTTCBHZW5lcmF0ZWQgQ2VydGlmaWNhdGUw
HQYDVR0OBBYEFEjGM2jv9Ni2Pd+Uwm7J9qfn8oBaMIGYBgNVHSMEgZAwgY2AFFYX
7/Zri1n+Ixlo3njA4U1nfdBmoWqkaDBmMQswCQYDVQQGEwJERTEPMA0GA1UECBMG
QmF5ZXJuMQ8wDQYDVQQHEwZNdW5pY2gxDTALBgNVBAoTBEhvbWUxFTATBgNVBAsT
DEFwYWNoZSBXU1M0SjEPMA0GA1UEAxMGV2VybmVyggkAjeEsCmkRd9IwDQYJKoZI
hvcNAQELBQADgYEARiKSc29zIPevMzkEGDrAeZJ664k/Q5RN+8H3t3qmnQeFS9HV
VN7CbbxyfHel0ZyTYF0Gvp0NbExadEbPyuf73PrwI1OBXF8/ADNNPjcrl2waUlJ5
av9RJyCK3uX1CcEBNSZuBKSIDvWy9hbWbVtQ4otV+a6a6/BJRMJnEP8wQl8=
-----END CERTIFICATE-----
