Certificate:
    Data:
        Version: 3 (0x2)
        Serial Number: 28 (0x1c)
    Signature Algorithm: sha256WithRSAEncryption
        Issuer: C=DE, ST=Bayern, L=Munich, O=Home, OU=Apache WSS4J, CN=Werner
        Validity
            Not Before: Sep  9 14:18:08 2015 GMT
            Not After : Sep  6 14:18:08 2025 GMT
        Subject: C=IE, ST=Leinster, L=Dublin, O=Apache, OU=WSS4J, CN=Server
        Subject Public Key Info:
            Public Key Algorithm: rsaEncryption
                Public-Key: (2048 bit)
                Modulus:
                    00:b2:ed:42:a3:a1:7e:a8:a8:09:24:08:35:08:7a:
                    69:8a:16:f3:1d:97:2a:98:a5:dc:46:e0:34:db:b4:
                    e1:04:ac:29:7f:02:fa:4a:80:97:19:3d:e2:d2:bc:
                    de:e9:63:bf:60:c9:92:82:4c:4a:49:77:61:ee:0b:
                    3d:76:de:90:6f:95:a7:af:1a:58:f6:e2:b2:35:f5:
                    60:5c:7d:14:42:ae:8f:bd:cb:72:7f:6d:51:01:7a:
                    c9:35:dd:91:e6:43:2f:ec:7d:7e:5c:b8:d6:1c:17:
                    f2:0c:42:b9:19:dc:f6:b5:aa:10:7e:9d:0a:4f:f2:
                    42:73:58:92:db:eb:bb:2d:54:9b:ae:57:5c:05:38:
                    49:e0:49:e1:9c:69:e1:5a:4c:ca:74:1d:db:c0:32:
                    84:5c:6c:d6:25:5f:aa:9b:01:5f:2d:3c:c4:75:84:
                    e5:05:4e:e6:bd:77:66:5e:ff:01:b7:2f:46:92:09:
                    17:12:41:03:42:9d:a5:cf:b9:9f:8e:7f:a0:32:f1:
                    9d:c8:1c:a9:7b:24:59:77:42:cc:90:55:0f:aa:9c:
                    c1:88:b7:6f:21:c0:6c:f3:d3:a1:89:d8:67:6d:df:
                    1c:74:d0:47:29:e2:0a:aa:83:cc:9f:66:26:57:2d:
                    98:ec:a5:54:13:7e:a1:65:f3:0c:70:ff:51:3a:ca:
                    d7:ff
                Exponent: 65537 (0x10001)
        X509v3 extensions:
            X509v3 Basic Constraints: 
                CA:FALSE
            Netscape Comment: 
                OpenSSL Generated Certificate
            X509v3 Subject Key Identifier: 
                54:F5:A2:4C:22:E5:9B:43:B0:35:64:F0:AE:74:53:50:5D:EA:70:89
            X509v3 Authority Key Identifier: 
                keyid:56:17:EF:F6:6B:8B:59:FE:23:19:68:DE:78:C0:E1:4D:67:7D:D0:66
                DirName:/C=DE/ST=Bayern/L=Munich/O=Home/OU=Apache WSS4J/CN=Werner
                serial:8D:E1:2C:0A:69:11:77:D2

    Signature Algorithm: sha256WithRSAEncryption
         51:1b:94:26:18:04:55:5f:f6:16:d0:55:e2:fa:59:c7:61:83:
         96:2e:b2:6e:91:51:31:dc:ec:86:cd:ad:0c:19:d8:62:6b:ed:
         01:6d:de:1b:79:66:6f:a6:0d:52:a7:19:f8:68:b7:c8:9f:df:
         3f:84:51:26:11:46:10:90:94:38:0c:ba:9a:3d:db:39:35:34:
         d0:b2:4d:ef:66:93:4c:62:d1:e4:7f:3c:6b:46:fb:6b:ce:a7:
         8d:e7:22:58:6c:62:c9:d7:ee:ca:78:0b:fc:d2:f3:d3:56:9f:
         1d:87:bd:b8:d0:bd:c5:3d:d9:8e:3c:a4:85:71:ee:c7:4c:7d:
         66:3f
-----BEGIN CERTIFICATE-----
MIIDujCCAyOgAwIBAgIBHDANBgkqhkiG9w0BAQsFADBmMQswCQYDVQQGEwJERTEP
MA0GA1UECBMGQmF5ZXJuMQ8wDQYDVQQHEwZNdW5pY2gxDTALBgNVBAoTBEhvbWUx
FTATBgNVBAsTDEFwYWNoZSBXU1M0SjEPMA0GA1UEAxMGV2VybmVyMB4XDTE1MDkw
OTE0MTgwOFoXDTI1MDkwNjE0MTgwOFowYzELMAkGA1UEBhMCSUUxETAPBgNVBAgT
CExlaW5zdGVyMQ8wDQYDVQQHEwZEdWJsaW4xDzANBgNVBAoTBkFwYWNoZTEOMAwG
A1UECxMFV1NTNEoxDzANBgNVBAMTBlNlcnZlcjCCASIwDQYJKoZIhvcNAQEBBQAD
ggEPADCCAQoCggEBALLtQqOhfqioCSQINQh6aYoW8x2XKpil3EbgNNu04QSsKX8C
+kqAlxk94tK83uljv2DJkoJMSkl3Ye4LPXbekG+Vp68aWPbisjX1YFx9FEKuj73L
cn9tUQF6yTXdkeZDL+x9fly41hwX8gxCuRnc9rWqEH6dCk/yQnNYktvruy1Um65X
XAU4SeBJ4Zxp4VpMynQd28AyhFxs1iVfqpsBXy08xHWE5QVO5r13Zl7/AbcvRpIJ
FxJBA0Kdpc+5n45/oDLxncgcqXskWXdCzJBVD6qcwYi3byHAbPPToYnYZ23fHHTQ
RyniCqqDzJ9mJlctmOylVBN+oWXzDHD/UTrK1/8CAwEAAaOB9jCB8zAJBgNVHRME
AjAAMCwGCWCGSAGG+EIBDQQfFh1PcGVuU1NMIEdlbmVyYXRlZCBDZXJ0aWZpY2F0
ZTAdBgNVHQ4EFgQUVPWiTCLlm0OwNWTwrnRTUF3qcIkwgZgGA1UdIwSBkDCBjYAU
Vhfv9muLWf4jGWjeeMDhTWd90GahaqRoMGYxCzAJBgNVBAYTAkRFMQ8wDQYDVQQI
EwZCYXllcm4xDzANBgNVBAcTBk11bmljaDENMAsGA1UEChMESG9tZTEVMBMGA1UE
CxMMQXBhY2hlIFdTUzRKMQ8wDQYDVQQDEwZXZXJuZXKCCQCN4SwKaRF30jANBgkq
hkiG9w0BAQsFAAOBgQBRG5QmGARVX/YW0FXi+lnHYYOWLrJukVEx3OyGza0MGdhi
a+0Bbd4beWZvpg1Spxn4aLfIn98/hFEmEUYQkJQ4DLqaPds5NTTQsk3vZpNMYtHk
fzxrRvtrzqeN5yJYbGLJ1+7KeAv80vPTVp8dh7240L3FPdmOPKSFce7HTH1mPw==
-----END CERTIFICATE-----
