Certificate:
    Data:
        Version: 3 (0x2)
        Serial Number: 29 (0x1d)
    Signature Algorithm: sha256WithRSAEncryption
        Issuer: C=DE, ST=Bayern, L=Munich, O=Home, OU=Apache WSS4J, CN=Werner
        Validity
            Not Before: Sep  9 14:50:16 2015 GMT
            Not After : Sep  6 14:50:16 2025 GMT
        Subject: C=IE, ST=Leinster, L=Dublin, O=Apache, OU=WSS4J, CN=Colm DSA
        Subject Public Key Info:
            Public Key Algorithm: dsaEncryption
                pub: 
                    2c:2e:d1:99:75:cb:c2:9a:c3:a1:44:7a:6d:2f:f5:
                    ca:be:67:e7:47:12:02:bb:23:63:d4:d0:ca:30:e3:
                    e0:07:7d:4e:b3:3f:ed:2d:40:e5:cf:b1:8f:24:ee:
                    fc:a2:ab:a5:ce:f4:7d:6d:92:04:a3:4b:9f:24:ee:
                    cd:9a:9c:27:2a:0e:83:06:67:ef:87:cf:c3:6c:c6:
                    c0:fb:4e:08:25:bf:bc:1c:3f:8e:8e:cf:5f:3a:a0:
                    d1:b8:b6:cd:02:2d:4b:1a:11:83:19:42:48:b1:bd:
                    be:1e:6c:86:17:a2:5d:0f:eb:bf:53:a4:57:31:dd:
                    5a:a6:71:4e:90:b2:be:0e
                P:   
                    00:fd:7f:53:81:1d:75:12:29:52:df:4a:9c:2e:ec:
                    e4:e7:f6:11:b7:52:3c:ef:44:00:c3:1e:3f:80:b6:
                    51:26:69:45:5d:40:22:51:fb:59:3d:8d:58:fa:bf:
                    c5:f5:ba:30:f6:cb:9b:55:6c:d7:81:3b:80:1d:34:
                    6f:f2:66:60:b7:6b:99:50:a5:a4:9f:9f:e8:04:7b:
                    10:22:c2:4f:bb:a9:d7:fe:b7:c6:1b:f8:3b:57:e7:
                    c6:a8:a6:15:0f:04:fb:83:f6:d3:c5:1e:c3:02:35:
                    54:13:5a:16:91:32:f6:75:f3:ae:2b:61:d7:2a:ef:
                    f2:22:03:19:9d:d1:48:01:c7
                Q:   
                    00:97:60:50:8f:15:23:0b:cc:b2:92:b9:82:a2:eb:
                    84:0b:f0:58:1c:f5
                G:   
                    00:f7:e1:a0:85:d6:9b:3d:de:cb:bc:ab:5c:36:b8:
                    57:b9:79:94:af:bb:fa:3a:ea:82:f9:57:4c:0b:3d:
                    07:82:67:51:59:57:8e:ba:d4:59:4f:e6:71:07:10:
                    81:80:b4:49:16:71:23:e8:4c:28:16:13:b7:cf:09:
                    32:8c:c8:a6:e1:3c:16:7a:8b:54:7c:8d:28:e0:a3:
                    ae:1e:2b:b3:a6:75:91:6e:a3:7f:0b:fa:21:35:62:
                    f1:fb:62:7a:01:24:3b:cc:a4:f1:be:a8:51:90:89:
                    a8:83:df:e1:5a:e5:9f:06:92:8b:66:5e:80:7b:55:
                    25:64:01:4c:3b:fe:cf:49:2a
        X509v3 extensions:
            X509v3 Basic Constraints: 
                CA:FALSE
            Netscape Comment: 
                OpenSSL Generated Certificate
            X509v3 Subject Key Identifier: 
                3F:F3:18:0A:C6:45:73:2B:CB:34:3B:02:46:0D:4D:D8:B8:91:E9:B9
            X509v3 Authority Key Identifier: 
                keyid:56:17:EF:F6:6B:8B:59:FE:23:19:68:DE:78:C0:E1:4D:67:7D:D0:66
                DirName:/C=DE/ST=Bayern/L=Munich/O=Home/OU=Apache WSS4J/CN=Werner
                serial:8D:E1:2C:0A:69:11:77:D2

    Signature Algorithm: sha256WithRSAEncryption
         c1:cd:d0:93:27:d5:19:67:5b:a2:81:34:42:13:af:55:63:5f:
         cb:77:5a:44:21:f7:be:ec:14:0e:c1:4c:fe:3e:df:76:53:91:
         7d:2e:84:1f:c7:e5:b7:05:8e:b3:8c:0e:87:17:a2:30:ea:07:
         93:32:7e:2a:d2:fd:b9:0b:70:c6:57:c5:16:18:2f:57:f6:99:
         64:56:d3:17:0c:75:45:5f:8f:2e:10:25:43:6d:09:09:9c:dd:
         86:b2:29:c3:e0:da:36:4b:50:b0:9d:a6:86:96:c7:5e:16:e0:
         c0:aa:c4:27:f7:71:28:e6:07:1d:cc:b6:92:c8:b5:f3:8c:c2:
         2f:84
-----BEGIN CERTIFICATE-----
MIIEUTCCA7qgAwIBAgIBHTANBgkqhkiG9w0BAQsFADBmMQswCQYDVQQGEwJERTEP
MA0GA1UECBMGQmF5ZXJuMQ8wDQYDVQQHEwZNdW5pY2gxDTALBgNVBAoTBEhvbWUx
FTATBgNVBAsTDEFwYWNoZSBXU1M0SjEPMA0GA1UEAxMGV2VybmVyMB4XDTE1MDkw
OTE0NTAxNloXDTI1MDkwNjE0NTAxNlowZTELMAkGA1UEBhMCSUUxETAPBgNVBAgT
CExlaW5zdGVyMQ8wDQYDVQQHEwZEdWJsaW4xDzANBgNVBAoTBkFwYWNoZTEOMAwG
A1UECxMFV1NTNEoxETAPBgNVBAMTCENvbG0gRFNBMIIBtzCCASwGByqGSM44BAEw
ggEfAoGBAP1/U4EddRIpUt9KnC7s5Of2EbdSPO9EAMMeP4C2USZpRV1AIlH7WT2N
WPq/xfW6MPbLm1Vs14E7gB00b/JmYLdrmVClpJ+f6AR7ECLCT7up1/63xhv4O1fn
xqimFQ8E+4P208UewwI1VBNaFpEy9nXzrith1yrv8iIDGZ3RSAHHAhUAl2BQjxUj
C8yykrmCouuEC/BYHPUCgYEA9+GghdabPd7LvKtcNrhXuXmUr7v6OuqC+VdMCz0H
gmdRWVeOutRZT+ZxBxCBgLRJFnEj6EwoFhO3zwkyjMim4TwWeotUfI0o4KOuHiuz
pnWRbqN/C/ohNWLx+2J6ASQ7zKTxvqhRkImog9/hWuWfBpKLZl6Ae1UlZAFMO/7P
SSoDgYQAAoGALC7RmXXLwprDoUR6bS/1yr5n50cSArsjY9TQyjDj4Ad9TrM/7S1A
5c+xjyTu/KKrpc70fW2SBKNLnyTuzZqcJyoOgwZn74fPw2zGwPtOCCW/vBw/jo7P
Xzqg0bi2zQItSxoRgxlCSLG9vh5shheiXQ/rv1OkVzHdWqZxTpCyvg6jgfYwgfMw
CQYDVR0TBAIwADAsBglghkgBhvhCAQ0EHxYdT3BlblNTTCBHZW5lcmF0ZWQgQ2Vy
dGlmaWNhdGUwHQYDVR0OBBYEFD/zGArGRXMryzQ7AkYNTdi4kem5MIGYBgNVHSME
gZAwgY2AFFYX7/Zri1n+Ixlo3njA4U1nfdBmoWqkaDBmMQswCQYDVQQGEwJERTEP
MA0GA1UECBMGQmF5ZXJuMQ8wDQYDVQQHEwZNdW5pY2gxDTALBgNVBAoTBEhvbWUx
FTATBgNVBAsTDEFwYWNoZSBXU1M0SjEPMA0GA1UEAxMGV2VybmVyggkAjeEsCmkR
d9IwDQYJKoZIhvcNAQELBQADgYEAwc3QkyfVGWdbooE0QhOvVWNfy3daRCH3vuwU
DsFM/j7fdlORfS6EH8fltwWOs4wOhxeiMOoHkzJ+KtL9uQtwxlfFFhgvV/aZZFbT
Fwx1RV+PLhAlQ20JCZzdhrIpw+DaNktQsJ2mhpbHXhbgwKrEJ/dxKOYHHcy2ksi1
84zCL4Q=
-----END CERTIFICATE-----
