Certificate:
    Data:
        Version: 3 (0x2)
        Serial Number: 30 (0x1e)
    Signature Algorithm: sha256WithRSAEncryption
        Issuer: C=DE, ST=Bayern, L=Munich, O=Home, OU=Apache WSS4J, CN=Werner
        Validity
            Not Before: Sep  9 15:17:32 2015 GMT
            Not After : Sep  6 15:17:32 2025 GMT
        Subject: C=IE, ST=Leinster, L=Dublin, O=Apache, OU=WSS4J, CN=Colm
        Subject Public Key Info:
            Public Key Algorithm: rsaEncryption
                Public-Key: (2048 bit)
                Modulus:
                    00:c8:de:63:af:3b:35:e9:14:48:a7:06:f6:46:24:
                    28:5c:29:4d:66:23:98:32:4f:aa:f3:6f:b1:42:21:
                    09:7c:fc:42:e0:82:b4:93:2b:bb:21:31:c0:d3:99:
                    48:f9:b5:2e:7e:5b:1c:d3:58:b0:de:55:68:94:1f:
                    54:c2:6a:3a:83:3d:bf:43:39:56:78:6b:97:cb:6d:
                    26:c7:81:d2:58:9d:e7:de:88:1f:54:5e:dd:f4:e6:
                    9b:c0:57:c1:1f:65:8c:0e:c7:98:2d:8b:24:ab:d7:
                    16:03:14:83:ba:59:c9:25:cf:ab:35:16:62:a9:4a:
                    f4:e6:70:9f:49:b6:ba:48:e7:5d:17:66:26:e8:a3:
                    b5:4b:71:d5:50:cd:c9:cf:7f:de:57:36:59:e2:59:
                    4b:61:a1:ae:4b:0a:9f:5e:68:6b:d8:e1:36:7d:63:
                    66:e4:22:a9:c0:78:12:0a:b7:fd:ef:b3:55:1c:7c:
                    cf:51:51:ba:28:1b:88:65:cb:13:65:be:6b:68:65:
                    ce:8b:0f:b9:4e:5b:d5:07:46:df:8d:2c:cd:28:b4:
                    62:ad:15:8a:26:03:c5:ff:32:fc:a7:56:db:46:53:
                    6a:49:cb:3b:1a:a5:00:fb:49:ff:e5:db:7d:7f:c7:
                    e1:2f:41:54:0f:ef:fc:20:5c:0a:49:d4:3f:df:04:
                    79:3b
                Exponent: 65537 (0x10001)
        X509v3 extensions:
            X509v3 Basic Constraints: 
                CA:FALSE
            Netscape Comment: 
                OpenSSL Generated Certificate
            X509v3 Subject Key Identifier: 
                D5:08:FF:B8:69:F9:DF:0C:0E:AA:80:79:D7:B8:11:52:26:B7:80:5C
            X509v3 Authority Key Identifier: 
                keyid:56:17:EF:F6:6B:8B:59:FE:23:19:68:DE:78:C0:E1:4D:67:7D:D0:66
                DirName:/C=DE/ST=Bayern/L=Munich/O=Home/OU=Apache WSS4J/CN=Werner
                serial:8D:E1:2C:0A:69:11:77:D2

    Signature Algorithm: sha256WithRSAEncryption
         6c:aa:e7:46:4a:de:3e:7c:50:9f:dc:ca:e3:d2:43:6f:5f:a7:
         ca:66:71:47:2f:ca:93:8a:31:7e:07:2d:f5:78:a8:29:1c:b2:
         f1:b3:0f:e6:f9:8f:b0:7f:d3:f4:4b:55:92:52:c9:64:4a:4f:
         e7:55:36:e0:54:92:c4:01:1a:3c:7b:e3:83:fe:4f:79:de:15:
         42:38:7f:80:e9:f5:76:00:42:fe:e0:92:43:6b:01:eb:10:5c:
         9f:e1:16:b7:1a:e4:10:0e:0f:5e:ec:30:fb:04:4c:c4:58:98:
         7a:37:ba:b7:63:63:b7:59:00:0a:c4:aa:a3:d5:06:f2:f0:d4:
         a9:c1
-----BEGIN CERTIFICATE-----
MIIDuDCCAyGgAwIBAgIBHjANBgkqhkiG9w0BAQsFADBmMQswCQYDVQQGEwJERTEP
MA0GA1UECBMGQmF5ZXJuMQ8wDQYDVQQHEwZNdW5pY2gxDTALBgNVBAoTBEhvbWUx
FTATBgNVBAsTDEFwYWNoZSBXU1M0SjEPMA0GA1UEAxMGV2VybmVyMB4XDTE1MDkw
OTE1MTczMloXDTI1MDkwNjE1MTczMlowYTELMAkGA1UEBhMCSUUxETAPBgNVBAgT
CExlaW5zdGVyMQ8wDQYDVQQHEwZEdWJsaW4xDzANBgNVBAoTBkFwYWNoZTEOMAwG
A1UECxMFV1NTNEoxDTALBgNVBAMTBENvbG0wggEiMA0GCSqGSIb3DQEBAQUAA4IB
DwAwggEKAoIBAQDI3mOvOzXpFEinBvZGJChcKU1mI5gyT6rzb7FCIQl8/ELggrST
K7shMcDTmUj5tS5+WxzTWLDeVWiUH1TCajqDPb9DOVZ4a5fLbSbHgdJYnefeiB9U
Xt305pvAV8EfZYwOx5gtiySr1xYDFIO6Wcklz6s1FmKpSvTmcJ9JtrpI510XZibo
o7VLcdVQzcnPf95XNlniWUthoa5LCp9eaGvY4TZ9Y2bkIqnAeBIKt/3vs1UcfM9R
UbooG4hlyxNlvmtoZc6LD7lOW9UHRt+NLM0otGKtFYomA8X/MvynVttGU2pJyzsa
pQD7Sf/l231/x+EvQVQP7/wgXApJ1D/fBHk7AgMBAAGjgfYwgfMwCQYDVR0TBAIw
ADAsBglghkgBhvhCAQ0EHxYdT3BlblNTTCBHZW5lcmF0ZWQgQ2VydGlmaWNhdGUw
HQYDVR0OBBYEFNUI/7hp+d8MDqqAede4EVImt4BcMIGYBgNVHSMEgZAwgY2AFFYX
7/Zri1n+Ixlo3njA4U1nfdBmoWqkaDBmMQswCQYDVQQGEwJERTEPMA0GA1UECBMG
QmF5ZXJuMQ8wDQYDVQQHEwZNdW5pY2gxDTALBgNVBAoTBEhvbWUxFTATBgNVBAsT
DEFwYWNoZSBXU1M0SjEPMA0GA1UEAxMGV2VybmVyggkAjeEsCmkRd9IwDQYJKoZI
hvcNAQELBQADgYEAbKrnRkrePnxQn9zK49JDb1+nymZxRy/Kk4oxfgct9XioKRyy
8bMP5vmPsH/T9EtVklLJZEpP51U24FSSxAEaPHvjg/5Ped4VQjh/gOn1dgBC/uCS
Q2sB6xBcn+EWtxrkEA4PXuww+wRMxFiYeje6t2Njt1kACsSqo9UG8vDUqcE=
-----END CERTIFICATE-----
