Certificate:
    Data:
        Version: 3 (0x2)
        Serial Number: 31 (0x1f)
    Signature Algorithm: sha256WithRSAEncryption
        Issuer: C=DE, ST=Bayern, L=Munich, O=Home, OU=Apache WSS4J, CN=Werner
        Validity
            Not Before: Sep 10 15:48:18 2015 GMT
            Not After : Sep 11 15:48:18 2015 GMT
        Subject: C=IE, ST=Leinster, L=Dublin, O=Apache, OU=WSS4J, CN=Colm
        Subject Public Key Info:
            Public Key Algorithm: rsaEncryption
                Public-Key: (2048 bit)
                Modulus:
                    00:9a:bd:a8:55:b4:2f:8c:8c:fe:c6:75:50:8b:f8:
                    86:b4:ae:9a:e0:66:29:52:d2:69:98:93:67:d7:76:
                    9c:5d:73:9b:ad:8b:51:75:81:bf:99:a5:b0:5b:7a:
                    6b:7b:7a:4c:d7:9d:fd:f3:20:72:87:12:f2:e7:2d:
                    16:39:a9:13:d3:36:f1:da:5f:e5:b4:15:b2:27:91:
                    8e:42:eb:fe:63:ab:48:fa:e3:f7:5b:87:50:e4:3d:
                    cc:eb:0b:f8:57:dc:a8:c0:0b:95:7d:b2:9b:67:97:
                    3e:5d:50:cd:d4:bb:eb:66:9b:fb:02:79:bf:97:73:
                    61:1e:1b:bf:a7:0a:0c:98:c0:11:f3:ef:86:5b:7c:
                    bb:43:db:5a:17:0e:ff:f6:34:f5:61:50:1f:3d:f1:
                    33:22:36:d2:f0:76:6f:fb:87:c6:12:64:aa:4d:fb:
                    7b:70:df:92:25:2a:da:c9:17:a1:fd:7d:3a:0a:6b:
                    67:04:fb:c5:ab:fd:9f:4a:7a:51:cb:65:cb:fd:7e:
                    01:d8:35:98:d6:b2:13:8f:99:f0:3e:4b:ee:e7:29:
                    81:e8:49:5d:c6:77:8f:f5:2a:2d:ba:14:c7:f8:d5:
                    c3:66:df:93:fb:0b:e1:4c:4a:2f:d6:60:66:5b:16:
                    7c:68:f1:38:26:0d:0a:10:08:4c:13:a1:75:44:c4:
                    be:39
                Exponent: 65537 (0x10001)
        X509v3 extensions:
            X509v3 Basic Constraints: 
                CA:FALSE
            Netscape Comment: 
                OpenSSL Generated Certificate
            X509v3 Subject Key Identifier: 
                0D:96:C6:B7:0A:78:12:F5:0F:40:3B:A9:F6:E0:9E:63:B0:C4:AB:51
            X509v3 Authority Key Identifier: 
                keyid:56:17:EF:F6:6B:8B:59:FE:23:19:68:DE:78:C0:E1:4D:67:7D:D0:66
                DirName:/C=DE/ST=Bayern/L=Munich/O=Home/OU=Apache WSS4J/CN=Werner
                serial:8D:E1:2C:0A:69:11:77:D2

    Signature Algorithm: sha256WithRSAEncryption
         1c:f6:ad:ca:04:ab:26:df:89:28:fa:c5:fd:0f:d3:af:85:94:
         c0:2a:76:2d:ac:45:94:57:6c:4f:4f:cd:b3:e8:fa:0b:b8:96:
         67:33:b4:ad:da:9b:70:93:21:33:54:88:c2:6d:6e:87:3a:7e:
         e1:d7:15:0f:0d:04:f6:1c:af:60:07:c2:c1:4e:f7:dd:95:8c:
         ea:41:85:1b:52:5b:90:78:82:c1:3f:ef:a1:14:5d:f5:f3:21:
         d3:8f:3a:1e:12:43:9b:0a:ad:92:ef:92:2f:34:25:5e:4a:8f:
         a3:1f:22:a5:4c:02:81:ab:82:4a:e1:69:5e:b8:96:43:05:1b:
         60:b3
-----BEGIN CERTIFICATE-----
MIIDuDCCAyGgAwIBAgIBHzANBgkqhkiG9w0BAQsFADBmMQswCQYDVQQGEwJERTEP
MA0GA1UECBMGQmF5ZXJuMQ8wDQYDVQQHEwZNdW5pY2gxDTALBgNVBAoTBEhvbWUx
FTATBgNVBAsTDEFwYWNoZSBXU1M0SjEPMA0GA1UEAxMGV2VybmVyMB4XDTE1MDkx
MDE1NDgxOFoXDTE1MDkxMTE1NDgxOFowYTELMAkGA1UEBhMCSUUxETAPBgNVBAgT
CExlaW5zdGVyMQ8wDQYDVQQHEwZEdWJsaW4xDzANBgNVBAoTBkFwYWNoZTEOMAwG
A1UECxMFV1NTNEoxDTALBgNVBAMTBENvbG0wggEiMA0GCSqGSIb3DQEBAQUAA4IB
DwAwggEKAoIBAQCavahVtC+MjP7GdVCL+Ia0rprgZilS0mmYk2fXdpxdc5uti1F1
gb+ZpbBbemt7ekzXnf3zIHKHEvLnLRY5qRPTNvHaX+W0FbInkY5C6/5jq0j64/db
h1DkPczrC/hX3KjAC5V9sptnlz5dUM3Uu+tmm/sCeb+Xc2EeG7+nCgyYwBHz74Zb
fLtD21oXDv/2NPVhUB898TMiNtLwdm/7h8YSZKpN+3tw35IlKtrJF6H9fToKa2cE
+8Wr/Z9KelHLZcv9fgHYNZjWshOPmfA+S+7nKYHoSV3Gd4/1Ki26FMf41cNm35P7
C+FMSi/WYGZbFnxo8TgmDQoQCEwToXVExL45AgMBAAGjgfYwgfMwCQYDVR0TBAIw
ADAsBglghkgBhvhCAQ0EHxYdT3BlblNTTCBHZW5lcmF0ZWQgQ2VydGlmaWNhdGUw
HQYDVR0OBBYEFA2WxrcKeBL1D0A7qfbgnmOwxKtRMIGYBgNVHSMEgZAwgY2AFFYX
7/Zri1n+Ixlo3njA4U1nfdBmoWqkaDBmMQswCQYDVQQGEwJERTEPMA0GA1UECBMG
QmF5ZXJuMQ8wDQYDVQQHEwZNdW5pY2gxDTALBgNVBAoTBEhvbWUxFTATBgNVBAsT
DEFwYWNoZSBXU1M0SjEPMA0GA1UEAxMGV2VybmVyggkAjeEsCmkRd9IwDQYJKoZI
hvcNAQELBQADgYEAHPatygSrJt+JKPrF/Q/Tr4WUwCp2LaxFlFdsT0/Ns+j6C7iW
ZzO0rdqbcJMhM1SIwm1uhzp+4dcVDw0E9hyvYAfCwU733ZWM6kGFG1JbkHiCwT/v
oRRd9fMh0486HhJDmwqtku+SLzQlXkqPox8ipUwCgauCSuFpXriWQwUbYLM=
-----END CERTIFICATE-----
