Certificate:
    Data:
        Version: 3 (0x2)
        Serial Number: 32 (0x20)
        Signature Algorithm: sha256WithRSAEncryption
        Issuer: C=DE, ST=Bayern, L=Munich, O=Home, OU=Apache WSS4J, CN=Werner
        Validity
            Not Before: Apr 23 09:30:40 2019 GMT
            Not After : Apr 20 09:30:40 2029 GMT
        Subject: C=IE, ST=Leinster, L=Dublin, O=Apache, OU=WSS4J, CN=Colm
        Subject Public Key Info:
            Public Key Algorithm: rsaEncryption
                RSA Public-Key: (2048 bit)
                Modulus:
                    00:ca:a6:82:7f:b2:e3:16:a0:ef:93:bd:e4:f7:eb:
                    05:e2:5d:d7:b2:a9:9d:3a:8c:7e:0a:c8:f1:64:bc:
                    91:11:ea:c6:d2:a2:ef:92:01:da:34:b5:c6:df:70:
                    3a:64:79:4e:47:f0:b1:2d:22:da:3d:3e:56:67:2a:
                    1f:4e:9a:8d:c4:02:6b:57:c6:15:5d:e7:72:03:7b:
                    fe:04:e5:e6:ed:93:4a:35:50:08:ed:47:c8:d6:d8:
                    82:cc:e6:fa:b3:74:34:4a:72:e1:f7:52:b4:ec:03:
                    30:ef:c9:85:f3:b9:6f:b4:a8:64:9b:39:46:67:80:
                    29:1d:10:02:3d:c9:f9:06:a7:ea:47:12:a1:ef:64:
                    5e:ad:d0:a3:43:db:df:fa:36:af:1d:17:41:29:e5:
                    c1:2f:47:2e:f0:c8:1b:cf:d7:aa:8c:f1:bb:98:ef:
                    79:71:dd:e7:fc:87:34:65:ac:a9:98:cf:4f:4c:97:
                    15:d6:0b:d7:16:00:bd:9e:c0:aa:98:06:fe:e4:8d:
                    fc:23:5d:98:f4:65:9d:ac:1e:58:63:19:5a:52:2f:
                    04:d0:4a:70:2f:3d:c0:08:c2:5e:dd:7d:12:e7:09:
                    e0:59:9b:d7:ec:b5:8f:85:f9:9f:06:87:94:7f:65:
                    17:05:47:c6:d7:88:c9:a8:f7:cb:20:83:8b:4f:78:
                    04:13
                Exponent: 65537 (0x10001)
        X509v3 extensions:
            X509v3 Basic Constraints: 
                CA:FALSE
            Netscape Comment: 
                OpenSSL Generated Certificate
            X509v3 Subject Key Identifier: 
                A8:16:D5:03:BC:89:86:CA:4C:CE:24:1E:72:53:45:8C:9A:B2:49:EA
            X509v3 Authority Key Identifier: 
                keyid:75:E8:B1:5D:FD:14:00:8C:C7:5F:C7:0E:D6:02:8B:56:48:20:12:84
                DirName:/C=DE/ST=Bayern/L=Munich/O=Home/OU=Apache WSS4J/CN=Werner
                serial:11:8E:29:58:04:58:67:B0:43:BE:B3:3E:B4:34:95:F5:E6:7E:BC:8A

    Signature Algorithm: sha256WithRSAEncryption
         11:b6:3e:9f:24:8c:55:c0:9e:1d:3c:c4:bc:32:6e:0c:2d:9a:
         84:ab:27:e2:6b:10:16:91:34:10:36:85:79:69:ed:f9:5a:c9:
         b9:e2:3f:66:89:3d:34:7b:da:4f:b8:ad:33:bb:6a:66:26:16:
         11:d8:3b:d8:d9:a4:03:43:cc:ff:4e:09:fc:07:03:49:66:83:
         b1:55:a6:4d:ad:3b:53:f4:fd:ca:78:90:23:8e:ad:e9:9a:90:
         60:b3:47:77:b4:17:ff:fe:79:98:5f:79:1f:cc:86:7d:c3:14:
         6c:96:8f:be:55:62:c9:b6:d4:bd:22:a2:63:88:f2:74:e1:9e:
         31:29:42:0f:e8:03:02:0a:da:07:e3:3a:f0:8a:bc:10:14:ba:
         c8:c7:02:2b:f0:42:0b:53:e6:8f:4c:39:ad:a4:cc:33:e1:d7:
         59:81:0a:50:23:55:77:4b:73:a0:b5:53:07:10:75:53:73:14:
         ae:a8:17:a9:3a:35:a5:0d:c5:e1:e5:7c:fb:2c:3e:93:09:9f:
         f1:38:a4:c3:d9:47:34:09:4e:19:4c:d9:76:c3:57:68:bc:b2:
         e7:1b:36:7a:1c:c5:4d:6e:21:f4:39:92:2b:9b:9b:89:6f:43:
         c0:b2:71:cc:9f:50:b9:a4:2e:a4:03:ea:99:ab:63:ff:94:db:
         ee:a1:f2:b8
-----BEGIN CERTIFICATE-----
MIIERTCCAy2gAwIBAgIBIDANBgkqhkiG9w0BAQsFADBmMQswCQYDVQQGEwJERTEP
MA0GA1UECAwGQmF5ZXJuMQ8wDQYDVQQHDAZNdW5pY2gxDTALBgNVBAoMBEhvbWUx
FTATBgNVBAsMDEFwYWNoZSBXU1M0SjEPMA0GA1UEAwwGV2VybmVyMB4XDTE5MDQy
MzA5MzA0MFoXDTI5MDQyMDA5MzA0MFowYTELMAkGA1UEBhMCSUUxETAPBgNVBAgT
CExlaW5zdGVyMQ8wDQYDVQQHEwZEdWJsaW4xDzANBgNVBAoTBkFwYWNoZTEOMAwG
A1UECxMFV1NTNEoxDTALBgNVBAMTBENvbG0wggEiMA0GCSqGSIb3DQEBAQUAA4IB
DwAwggEKAoIBAQDKpoJ/suMWoO+TveT36wXiXdeyqZ06jH4KyPFkvJER6sbSou+S
Ado0tcbfcDpkeU5H8LEtIto9PlZnKh9Omo3EAmtXxhVd53IDe/4E5ebtk0o1UAjt
R8jW2ILM5vqzdDRKcuH3UrTsAzDvyYXzuW+0qGSbOUZngCkdEAI9yfkGp+pHEqHv
ZF6t0KND29/6Nq8dF0Ep5cEvRy7wyBvP16qM8buY73lx3ef8hzRlrKmYz09MlxXW
C9cWAL2ewKqYBv7kjfwjXZj0ZZ2sHlhjGVpSLwTQSnAvPcAIwl7dfRLnCeBZm9fs
tY+F+Z8Gh5R/ZRcFR8bXiMmo98sgg4tPeAQTAgMBAAGjggEBMIH+MAkGA1UdEwQC
MAAwLAYJYIZIAYb4QgENBB8WHU9wZW5TU0wgR2VuZXJhdGVkIENlcnRpZmljYXRl
MB0GA1UdDgQWBBSoFtUDvImGykzOJB5yU0WMmrJJ6jCBowYDVR0jBIGbMIGYgBR1
6LFd/RQAjMdfxw7WAotWSCAShKFqpGgwZjELMAkGA1UEBhMCREUxDzANBgNVBAgM
BkJheWVybjEPMA0GA1UEBwwGTXVuaWNoMQ0wCwYDVQQKDARIb21lMRUwEwYDVQQL
DAxBcGFjaGUgV1NTNEoxDzANBgNVBAMMBldlcm5lcoIUEY4pWARYZ7BDvrM+tDSV
9eZ+vIowDQYJKoZIhvcNAQELBQADggEBABG2Pp8kjFXAnh08xLwybgwtmoSrJ+Jr
EBaRNBA2hXlp7flaybniP2aJPTR72k+4rTO7amYmFhHYO9jZpANDzP9OCfwHA0lm
g7FVpk2tO1P0/cp4kCOOremakGCzR3e0F//+eZhfeR/Mhn3DFGyWj75VYsm21L0i
omOI8nThnjEpQg/oAwIK2gfjOvCKvBAUusjHAivwQgtT5o9MOa2kzDPh11mBClAj
VXdLc6C1UwcQdVNzFK6oF6k6NaUNxeHlfPssPpMJn/E4pMPZRzQJThlM2XbDV2i8
sucbNnocxU1uIfQ5kiubm4lvQ8CyccyfULmkLqQD6pmrY/+U2+6h8rg=
-----END CERTIFICATE-----
