Certificate:
    Data:
        Version: 3 (0x2)
        Serial Number: 33 (0x21)
        Signature Algorithm: sha256WithRSAEncryption
        Issuer: C=DE, ST=Bayern, L=Munich, O=Home, OU=Apache WSS4J, CN=Werner
        Validity
            Not Before: Apr 23 09:34:36 2019 GMT
            Not After : Apr 20 09:34:36 2029 GMT
        Subject: C=IE, ST=Leinster, L=Dublin, O=Apache, OU=WSS4J, CN=Colm
        Subject Public Key Info:
            Public Key Algorithm: dsaEncryption
                pub: 
                    5e:94:7b:e9:45:cd:ed:31:41:42:c7:9e:f6:d0:50:
                    c7:97:ba:6e:eb:5d:d3:c3:ce:e1:f3:79:df:0c:b1:
                    42:98:14:bc:fb:f2:43:6a:e2:c2:fd:3b:c1:ca:45:
                    64:a6:ea:12:08:62:23:e6:d4:36:49:97:ec:7d:fe:
                    3e:da:66:14:00:7c:f2:b8:d4:71:c2:fe:3f:71:34:
                    a3:0f:a0:12:c0:3a:cf:a4:46:d7:69:b0:67:2b:f2:
                    ee:21:07:8b:66:e4:59:9b:9e:11:a1:74:dd:60:4e:
                    14:70:77:d8:e5:02:11:e7:d2:37:fb:f8:c1:f4:c7:
                    75:7f:c5:2c:00:4a:6d:d3
                P:   
                    00:fd:7f:53:81:1d:75:12:29:52:df:4a:9c:2e:ec:
                    e4:e7:f6:11:b7:52:3c:ef:44:00:c3:1e:3f:80:b6:
                    51:26:69:45:5d:40:22:51:fb:59:3d:8d:58:fa:bf:
                    c5:f5:ba:30:f6:cb:9b:55:6c:d7:81:3b:80:1d:34:
                    6f:f2:66:60:b7:6b:99:50:a5:a4:9f:9f:e8:04:7b:
                    10:22:c2:4f:bb:a9:d7:fe:b7:c6:1b:f8:3b:57:e7:
                    c6:a8:a6:15:0f:04:fb:83:f6:d3:c5:1e:c3:02:35:
                    54:13:5a:16:91:32:f6:75:f3:ae:2b:61:d7:2a:ef:
                    f2:22:03:19:9d:d1:48:01:c7
                Q:   
                    00:97:60:50:8f:15:23:0b:cc:b2:92:b9:82:a2:eb:
                    84:0b:f0:58:1c:f5
                G:   
                    00:f7:e1:a0:85:d6:9b:3d:de:cb:bc:ab:5c:36:b8:
                    57:b9:79:94:af:bb:fa:3a:ea:82:f9:57:4c:0b:3d:
                    07:82:67:51:59:57:8e:ba:d4:59:4f:e6:71:07:10:
                    81:80:b4:49:16:71:23:e8:4c:28:16:13:b7:cf:09:
                    32:8c:c8:a6:e1:3c:16:7a:8b:54:7c:8d:28:e0:a3:
                    ae:1e:2b:b3:a6:75:91:6e:a3:7f:0b:fa:21:35:62:
                    f1:fb:62:7a:01:24:3b:cc:a4:f1:be:a8:51:90:89:
                    a8:83:df:e1:5a:e5:9f:06:92:8b:66:5e:80:7b:55:
                    25:64:01:4c:3b:fe:cf:49:2a
        X509v3 extensions:
            X509v3 Basic Constraints: 
                CA:FALSE
            Netscape Comment: 
                OpenSSL Generated Certificate
            X509v3 Subject Key Identifier: 
                C0:B3:BA:34:B8:23:F7:47:7A:22:DE:7B:B9:A8:57:B8:3E:BA:61:70
            X509v3 Authority Key Identifier: 
                keyid:75:E8:B1:5D:FD:14:00:8C:C7:5F:C7:0E:D6:02:8B:56:48:20:12:84
                DirName:/C=DE/ST=Bayern/L=Munich/O=Home/OU=Apache WSS4J/CN=Werner
                serial:11:8E:29:58:04:58:67:B0:43:BE:B3:3E:B4:34:95:F5:E6:7E:BC:8A

    Signature Algorithm: sha256WithRSAEncryption
         8d:90:a4:f4:a8:c9:6b:81:89:ff:86:eb:45:2f:88:65:b2:cc:
         ba:2f:5c:68:05:ce:c7:eb:cd:5b:b9:e1:ad:b0:91:5b:cd:3d:
         89:0c:b7:1f:41:18:55:24:e4:00:41:83:db:67:ba:a2:4b:80:
         14:00:11:6b:b0:74:c3:e4:52:10:a5:02:7f:dd:c3:fa:8a:ad:
         23:f0:cf:9e:a7:51:02:53:5a:28:ba:c4:2b:88:b5:0e:a7:6f:
         3e:cc:dc:50:9c:fb:a4:a6:eb:a5:bc:aa:94:14:20:a1:a2:82:
         c9:d4:86:0e:44:ed:f9:cd:c8:a1:f1:db:4a:7b:5e:69:06:02:
         bd:9a:73:0f:5f:0b:6e:5e:e5:65:e7:ba:71:cb:81:fd:56:ba:
         81:93:9c:3a:f5:cb:bd:4d:04:ef:6d:b3:a5:ea:00:bb:32:d7:
         83:0b:a7:6f:80:04:c4:25:22:82:fc:36:2e:85:97:c1:80:8c:
         7d:dc:00:c6:dc:fe:06:76:46:48:cd:23:3c:69:01:4e:02:b8:
         25:cf:db:f6:b4:67:21:72:59:eb:ba:3c:88:16:4f:cd:7c:83:
         74:1b:28:ff:a8:45:9d:01:0d:92:4c:f8:80:07:4f:da:f3:f2:
         af:bd:56:a1:33:70:51:ea:4e:a2:4e:a7:c1:43:a5:7f:7a:5b:
         90:f9:97:a3
-----BEGIN CERTIFICATE-----
MIIE2jCCA8KgAwIBAgIBITANBgkqhkiG9w0BAQsFADBmMQswCQYDVQQGEwJERTEP
MA0GA1UECAwGQmF5ZXJuMQ8wDQYDVQQHDAZNdW5pY2gxDTALBgNVBAoMBEhvbWUx
FTATBgNVBAsMDEFwYWNoZSBXU1M0SjEPMA0GA1UEAwwGV2VybmVyMB4XDTE5MDQy
MzA5MzQzNloXDTI5MDQyMDA5MzQzNlowYTELMAkGA1UEBhMCSUUxETAPBgNVBAgT
CExlaW5zdGVyMQ8wDQYDVQQHEwZEdWJsaW4xDzANBgNVBAoTBkFwYWNoZTEOMAwG
A1UECxMFV1NTNEoxDTALBgNVBAMTBENvbG0wggG3MIIBLAYHKoZIzjgEATCCAR8C
gYEA/X9TgR11EilS30qcLuzk5/YRt1I870QAwx4/gLZRJmlFXUAiUftZPY1Y+r/F
9bow9subVWzXgTuAHTRv8mZgt2uZUKWkn5/oBHsQIsJPu6nX/rfGG/g7V+fGqKYV
DwT7g/bTxR7DAjVUE1oWkTL2dfOuK2HXKu/yIgMZndFIAccCFQCXYFCPFSMLzLKS
uYKi64QL8Fgc9QKBgQD34aCF1ps93su8q1w2uFe5eZSvu/o66oL5V0wLPQeCZ1FZ
V4661FlP5nEHEIGAtEkWcSPoTCgWE7fPCTKMyKbhPBZ6i1R8jSjgo64eK7OmdZFu
o38L+iE1YvH7YnoBJDvMpPG+qFGQiaiD3+Fa5Z8GkotmXoB7VSVkAUw7/s9JKgOB
hAACgYBelHvpRc3tMUFCx5720FDHl7pu613Tw87h83nfDLFCmBS8+/JDauLC/TvB
ykVkpuoSCGIj5tQ2SZfsff4+2mYUAHzyuNRxwv4/cTSjD6ASwDrPpEbXabBnK/Lu
IQeLZuRZm54RoXTdYE4UcHfY5QIR59I3+/jB9Md1f8UsAEpt06OCAQEwgf4wCQYD
VR0TBAIwADAsBglghkgBhvhCAQ0EHxYdT3BlblNTTCBHZW5lcmF0ZWQgQ2VydGlm
aWNhdGUwHQYDVR0OBBYEFMCzujS4I/dHeiLee7moV7g+umFwMIGjBgNVHSMEgZsw
gZiAFHXosV39FACMx1/HDtYCi1ZIIBKEoWqkaDBmMQswCQYDVQQGEwJERTEPMA0G
A1UECAwGQmF5ZXJuMQ8wDQYDVQQHDAZNdW5pY2gxDTALBgNVBAoMBEhvbWUxFTAT
BgNVBAsMDEFwYWNoZSBXU1M0SjEPMA0GA1UEAwwGV2VybmVyghQRjilYBFhnsEO+
sz60NJX15n68ijANBgkqhkiG9w0BAQsFAAOCAQEAjZCk9KjJa4GJ/4brRS+IZbLM
ui9caAXOx+vNW7nhrbCRW809iQy3H0EYVSTkAEGD22e6okuAFAARa7B0w+RSEKUC
f93D+oqtI/DPnqdRAlNaKLrEK4i1DqdvPszcUJz7pKbrpbyqlBQgoaKCydSGDkTt
+c3IofHbSnteaQYCvZpzD18Lbl7lZee6ccuB/Va6gZOcOvXLvU0E722zpeoAuzLX
gwunb4AExCUigvw2LoWXwYCMfdwAxtz+BnZGSM0jPGkBTgK4Jc/b9rRnIXJZ67o8
iBZPzXyDdBso/6hFnQENkkz4gAdP2vPyr71WoTNwUepOok6nwUOlf3pbkPmXow==
-----END CERTIFICATE-----
