Certificate:
    Data:
        Version: 3 (0x2)
        Serial Number: 34 (0x22)
        Signature Algorithm: sha256WithRSAEncryption
        Issuer: C=DE, ST=Bayern, L=Munich, O=Home, OU=Apache WSS4J, CN=Werner
        Validity
            Not Before: Apr 23 09:37:53 2019 GMT
            Not After : Apr 20 09:37:53 2029 GMT
        Subject: C=IE, ST=Leinster, L=Dublin, O=Apache, OU=WSS4J, CN=Server
        Subject Public Key Info:
            Public Key Algorithm: rsaEncryption
                RSA Public-Key: (2048 bit)
                Modulus:
                    00:88:19:ab:97:a9:54:64:69:e3:5c:e6:d5:75:d4:
                    48:79:75:a5:b2:d4:3a:01:bb:0a:24:1d:5b:77:29:
                    2c:9c:13:4f:e8:1f:84:7e:83:c2:ed:e0:63:f7:8f:
                    a0:93:9f:6a:9c:4a:d0:0f:ca:e3:c9:d8:3f:22:70:
                    68:0b:93:89:21:01:5b:87:3d:6c:2d:49:d3:14:b5:
                    e0:ec:5d:11:f1:02:89:9f:9f:06:b5:b2:6e:5d:5b:
                    cb:8d:17:eb:b5:dd:27:29:11:96:f7:1f:14:a8:a3:
                    6c:e9:ca:2f:11:8b:a6:42:a6:49:a0:f4:77:db:35:
                    2a:2a:18:d7:95:2b:42:a4:02:04:d9:62:75:e1:e4:
                    1b:4d:7d:5e:3a:8b:7d:38:ea:02:e6:6d:b0:62:9e:
                    34:ac:6b:2c:63:fc:f0:e6:f2:a9:f4:f6:99:ef:08:
                    40:0e:bf:8d:0c:62:40:19:e5:7e:cc:a6:02:a7:44:
                    74:70:8f:0c:50:91:90:83:d6:53:2b:f2:19:ef:a4:
                    ff:d2:40:95:c7:0e:31:e0:9b:5a:23:c4:dc:c3:04:
                    cc:65:23:66:80:97:c8:b3:8a:d6:6d:94:3f:ac:76:
                    6e:e5:e7:74:f9:49:a6:db:41:52:44:cb:50:cd:4d:
                    01:11:b0:dc:42:a7:25:c8:ef:c0:85:7b:13:bf:07:
                    68:15
                Exponent: 65537 (0x10001)
        X509v3 extensions:
            X509v3 Basic Constraints: 
                CA:FALSE
            Netscape Comment: 
                OpenSSL Generated Certificate
            X509v3 Subject Key Identifier: 
                E4:BB:13:B0:B0:D2:6F:B5:F1:95:A0:9F:7E:33:41:1C:CE:67:FB:50
            X509v3 Authority Key Identifier: 
                keyid:75:E8:B1:5D:FD:14:00:8C:C7:5F:C7:0E:D6:02:8B:56:48:20:12:84
                DirName:/C=DE/ST=Bayern/L=Munich/O=Home/OU=Apache WSS4J/CN=Werner
                serial:11:8E:29:58:04:58:67:B0:43:BE:B3:3E:B4:34:95:F5:E6:7E:BC:8A

    Signature Algorithm: sha256WithRSAEncryption
         6f:86:64:ff:6f:0e:89:6c:b4:f7:c3:e8:6f:59:0d:67:2e:91:
         08:49:df:1b:56:c6:19:cf:49:ad:dd:7e:2b:ab:5d:b9:80:6e:
         1b:5f:fa:49:86:4a:7e:87:e1:49:65:d4:ea:42:25:76:9f:9a:
         02:2a:7b:0e:a8:c3:a0:19:d5:2a:eb:72:64:4a:de:14:1f:46:
         de:09:78:e2:69:59:1a:57:4f:3e:28:3f:c4:8d:ff:c9:a6:4c:
         19:c9:5e:80:91:d3:5b:0a:cc:8f:78:c0:4e:66:5c:03:75:b8:
         b9:38:74:0b:e9:6e:3a:ec:ce:f6:03:b5:25:21:4e:a9:af:fc:
         fa:47:93:d3:3e:cb:83:ec:d1:30:dd:09:ac:33:e6:96:f6:e1:
         63:ac:3a:68:55:34:c7:97:9d:4b:79:5e:66:ef:e4:60:fe:56:
         5e:99:5a:50:35:d5:11:6e:ec:ec:57:6b:75:94:59:4c:06:6a:
         5e:34:26:6b:8a:54:a3:0f:55:41:ad:9a:6d:79:c4:a4:76:b9:
         da:33:8f:8a:da:df:15:64:7f:1d:b5:ce:37:62:e1:86:50:ff:
         c4:70:35:58:61:75:d7:e5:54:c8:e3:e9:d0:dd:d3:b6:d8:31:
         d0:a6:2f:1a:ad:9b:30:fa:f6:21:b1:03:eb:89:41:21:1a:88:
         ea:01:05:1c
-----BEGIN CERTIFICATE-----
MIIERzCCAy+gAwIBAgIBIjANBgkqhkiG9w0BAQsFADBmMQswCQYDVQQGEwJERTEP
MA0GA1UECAwGQmF5ZXJuMQ8wDQYDVQQHDAZNdW5pY2gxDTALBgNVBAoMBEhvbWUx
FTATBgNVBAsMDEFwYWNoZSBXU1M0SjEPMA0GA1UEAwwGV2VybmVyMB4XDTE5MDQy
MzA5Mzc1M1oXDTI5MDQyMDA5Mzc1M1owYzELMAkGA1UEBhMCSUUxETAPBgNVBAgT
CExlaW5zdGVyMQ8wDQYDVQQHEwZEdWJsaW4xDzANBgNVBAoTBkFwYWNoZTEOMAwG
A1UECxMFV1NTNEoxDzANBgNVBAMTBlNlcnZlcjCCASIwDQYJKoZIhvcNAQEBBQAD
ggEPADCCAQoCggEBAIgZq5epVGRp41zm1XXUSHl1pbLUOgG7CiQdW3cpLJwTT+gf
hH6Dwu3gY/ePoJOfapxK0A/K48nYPyJwaAuTiSEBW4c9bC1J0xS14OxdEfECiZ+f
BrWybl1by40X67XdJykRlvcfFKijbOnKLxGLpkKmSaD0d9s1KioY15UrQqQCBNli
deHkG019XjqLfTjqAuZtsGKeNKxrLGP88ObyqfT2me8IQA6/jQxiQBnlfsymAqdE
dHCPDFCRkIPWUyvyGe+k/9JAlccOMeCbWiPE3MMEzGUjZoCXyLOK1m2UP6x2buXn
dPlJpttBUkTLUM1NARGw3EKnJcjvwIV7E78HaBUCAwEAAaOCAQEwgf4wCQYDVR0T
BAIwADAsBglghkgBhvhCAQ0EHxYdT3BlblNTTCBHZW5lcmF0ZWQgQ2VydGlmaWNh
dGUwHQYDVR0OBBYEFOS7E7Cw0m+18ZWgn34zQRzOZ/tQMIGjBgNVHSMEgZswgZiA
FHXosV39FACMx1/HDtYCi1ZIIBKEoWqkaDBmMQswCQYDVQQGEwJERTEPMA0GA1UE
CAwGQmF5ZXJuMQ8wDQYDVQQHDAZNdW5pY2gxDTALBgNVBAoMBEhvbWUxFTATBgNV
BAsMDEFwYWNoZSBXU1M0SjEPMA0GA1UEAwwGV2VybmVyghQRjilYBFhnsEO+sz60
NJX15n68ijANBgkqhkiG9w0BAQsFAAOCAQEAb4Zk/28OiWy098Pob1kNZy6RCEnf
G1bGGc9Jrd1+K6tduYBuG1/6SYZKfofhSWXU6kIldp+aAip7DqjDoBnVKutyZEre
FB9G3gl44mlZGldPPig/xI3/yaZMGclegJHTWwrMj3jATmZcA3W4uTh0C+luOuzO
9gO1JSFOqa/8+keT0z7Lg+zRMN0JrDPmlvbhY6w6aFU0x5edS3leZu/kYP5WXpla
UDXVEW7s7FdrdZRZTAZqXjQma4pUow9VQa2abXnEpHa52jOPitrfFWR/HbXON2Lh
hlD/xHA1WGF11+VUyOPp0N3Tttgx0KYvGq2bMPr2IbED64lBIRqI6gEFHA==
-----END CERTIFICATE-----
