Certificate:
    Data:
        Version: 3 (0x2)
        Serial Number: 35 (0x23)
        Signature Algorithm: sha256WithRSAEncryption
        Issuer: C=DE, ST=Bayern, L=Munich, O=Home, OU=Apache WSS4J, CN=Werner
        Validity
            Not Before: Apr 23 10:15:43 2019 GMT
            Not After : Apr 20 10:15:43 2029 GMT
        Subject: C=IE, ST=Leinster, L=Dublin, O=Apache, OU=WSS4J, CN=Colm
        Subject Public Key Info:
            Public Key Algorithm: rsaEncryption
                RSA Public-Key: (1024 bit)
                Modulus:
                    00:9d:5e:8d:c8:f0:72:6d:d0:d5:7a:16:20:19:be:
                    e3:3f:f3:99:97:68:d3:8c:19:63:79:89:27:fe:12:
                    1c:bf:b4:46:ab:11:06:47:f9:23:b8:ee:26:fd:2d:
                    f9:e2:2f:61:43:fe:92:b4:6f:77:9d:94:da:b3:a5:
                    59:81:b0:54:54:04:26:de:da:33:44:08:ef:6a:c8:
                    b4:d2:0a:4b:c7:0b:c6:4c:d7:ba:89:92:2a:6b:d3:
                    3a:08:de:e4:b2:95:c0:ad:4c:5c:f1:65:aa:15:7a:
                    50:9a:03:f9:50:38:c3:7c:0c:1a:55:67:35:d3:6f:
                    fc:dd:d5:56:ce:9b:d1:6b:bb
                Exponent: 65537 (0x10001)
        X509v3 extensions:
            X509v3 Basic Constraints: 
                CA:FALSE
            Netscape Comment: 
                OpenSSL Generated Certificate
            X509v3 Subject Key Identifier: 
                1F:B7:6D:D2:5B:FD:33:CB:98:3B:2E:12:79:D5:74:90:F3:AC:DB:60
            X509v3 Authority Key Identifier: 
                keyid:75:E8:B1:5D:FD:14:00:8C:C7:5F:C7:0E:D6:02:8B:56:48:20:12:84
                DirName:/C=DE/ST=Bayern/L=Munich/O=Home/OU=Apache WSS4J/CN=Werner
                serial:11:8E:29:58:04:58:67:B0:43:BE:B3:3E:B4:34:95:F5:E6:7E:BC:8A

    Signature Algorithm: sha256WithRSAEncryption
         15:cf:d2:9b:17:91:13:12:4b:32:ca:0f:ac:4e:b4:98:2b:11:
         8b:1f:59:92:ca:42:3f:2a:1d:f9:2c:63:1c:a7:6b:44:5b:9e:
         27:65:6c:0c:ed:34:6c:31:1c:dc:f1:8d:df:1a:db:0e:fa:d2:
         14:d9:b4:17:7b:3a:86:93:7c:2f:05:c9:9c:15:c2:32:0a:42:
         12:18:e6:4e:c0:3a:a5:8d:c4:fb:65:55:12:0b:8d:db:d6:de:
         46:7a:4c:ae:bc:62:8c:26:f1:d5:31:ec:83:c5:8f:ee:bc:69:
         01:3d:4b:10:94:a9:9b:d1:05:aa:db:eb:0b:71:93:6d:9a:ac:
         45:95:79:7d:e7:ee:1c:3d:78:f4:c6:58:97:c4:82:02:c5:c0:
         cf:33:ae:ff:ac:81:16:4e:e4:40:83:eb:0b:de:b9:df:6b:00:
         8a:aa:7b:d1:f5:ed:94:a3:e3:3c:d9:1c:32:1c:ce:4c:d0:50:
         af:64:45:38:c7:07:dd:5b:f6:cd:9a:b2:ff:3a:af:de:9d:e5:
         fb:6a:65:f4:f4:d1:24:8f:90:c3:84:57:1f:f3:f1:2e:bf:dc:
         45:ad:54:77:82:95:46:d3:cf:dc:6d:3c:79:d3:3c:40:66:94:
         52:5a:25:35:28:c9:8a:30:de:85:eb:d8:6a:30:5f:c8:46:e0:
         a2:be:9b:5f
-----BEGIN CERTIFICATE-----
MIIDwTCCAqmgAwIBAgIBIzANBgkqhkiG9w0BAQsFADBmMQswCQYDVQQGEwJERTEP
MA0GA1UECAwGQmF5ZXJuMQ8wDQYDVQQHDAZNdW5pY2gxDTALBgNVBAoMBEhvbWUx
FTATBgNVBAsMDEFwYWNoZSBXU1M0SjEPMA0GA1UEAwwGV2VybmVyMB4XDTE5MDQy
MzEwMTU0M1oXDTI5MDQyMDEwMTU0M1owYTELMAkGA1UEBhMCSUUxETAPBgNVBAgT
CExlaW5zdGVyMQ8wDQYDVQQHEwZEdWJsaW4xDzANBgNVBAoTBkFwYWNoZTEOMAwG
A1UECxMFV1NTNEoxDTALBgNVBAMTBENvbG0wgZ8wDQYJKoZIhvcNAQEBBQADgY0A
MIGJAoGBAJ1ejcjwcm3Q1XoWIBm+4z/zmZdo04wZY3mJJ/4SHL+0RqsRBkf5I7ju
Jv0t+eIvYUP+krRvd52U2rOlWYGwVFQEJt7aM0QI72rItNIKS8cLxkzXuomSKmvT
Ogje5LKVwK1MXPFlqhV6UJoD+VA4w3wMGlVnNdNv/N3VVs6b0Wu7AgMBAAGjggEB
MIH+MAkGA1UdEwQCMAAwLAYJYIZIAYb4QgENBB8WHU9wZW5TU0wgR2VuZXJhdGVk
IENlcnRpZmljYXRlMB0GA1UdDgQWBBQft23SW/0zy5g7LhJ51XSQ86zbYDCBowYD
VR0jBIGbMIGYgBR16LFd/RQAjMdfxw7WAotWSCAShKFqpGgwZjELMAkGA1UEBhMC
REUxDzANBgNVBAgMBkJheWVybjEPMA0GA1UEBwwGTXVuaWNoMQ0wCwYDVQQKDARI
b21lMRUwEwYDVQQLDAxBcGFjaGUgV1NTNEoxDzANBgNVBAMMBldlcm5lcoIUEY4p
WARYZ7BDvrM+tDSV9eZ+vIowDQYJKoZIhvcNAQELBQADggEBABXP0psXkRMSSzLK
D6xOtJgrEYsfWZLKQj8qHfksYxyna0RbnidlbAztNGwxHNzxjd8a2w760hTZtBd7
OoaTfC8FyZwVwjIKQhIY5k7AOqWNxPtlVRILjdvW3kZ6TK68Yowm8dUx7IPFj+68
aQE9SxCUqZvRBarb6wtxk22arEWVeX3n7hw9ePTGWJfEggLFwM8zrv+sgRZO5ECD
6wveud9rAIqqe9H17ZSj4zzZHDIczkzQUK9kRTjHB91b9s2asv86r96d5ftqZfT0
0SSPkMOEVx/z8S6/3EWtVHeClUbTz9xtPHnTPEBmlFJaJTUoyYow3oXr2GowX8hG
4KK+m18=
-----END CERTIFICATE-----
