Certificate:
    Data:
        Version: 3 (0x2)
        Serial Number: 36 (0x24)
        Signature Algorithm: sha256WithRSAEncryption
        Issuer: C=DE, ST=Bayern, L=Munich, O=Home, OU=Apache WSS4J, CN=Werner
        Validity
            Not Before: Apr 23 16:58:31 2019 GMT
            Not After : Apr 20 16:58:31 2029 GMT
        Subject: C=IE, ST=Leinster, L=Dublin, O=Apache, OU=WSS4J, CN=Colm
        Subject Public Key Info:
            Public Key Algorithm: rsaEncryption
                RSA Public-Key: (2048 bit)
                Modulus:
                    00:9b:c6:38:8a:e2:f7:f5:3b:47:e0:25:14:34:78:
                    6b:59:8d:88:7c:1e:3a:df:f2:30:1a:b2:95:a0:aa:
                    07:8e:6e:0f:ea:76:f2:08:2b:91:83:2f:cb:b4:1b:
                    69:82:ce:7d:d2:89:43:6d:12:be:58:fd:af:d8:c1:
                    2d:f5:a9:83:f7:dd:b4:0a:25:c0:5d:70:05:60:26:
                    e2:73:7e:e5:d9:a6:a4:fe:d4:56:9f:dd:cb:d0:26:
                    a3:00:b7:2a:14:50:f2:4f:da:4b:e9:39:29:67:42:
                    f6:d8:18:f9:21:60:09:fb:76:2e:2c:2d:76:b0:cf:
                    85:69:a8:12:e0:c3:bc:92:d5:8f:c5:b6:47:f9:2c:
                    be:dc:f9:e6:7d:02:9f:33:53:47:c3:64:d5:23:eb:
                    87:25:89:2f:c6:e2:78:60:6b:6d:6c:d9:c6:d7:c1:
                    c4:0a:07:da:2c:8b:f2:bc:96:be:2b:09:71:58:f2:
                    35:f1:a8:8b:91:1a:5f:84:c3:c4:ff:57:82:a2:cf:
                    79:5c:15:66:f9:7e:1f:54:b5:40:72:29:38:f1:17:
                    b0:d3:cc:95:94:d2:11:9b:81:c4:6e:c8:b1:8b:19:
                    a0:82:7b:eb:4d:01:94:3a:2a:08:25:2c:94:a4:4f:
                    a9:ec:70:30:fa:a9:29:e7:27:af:33:7f:04:25:d1:
                    30:77
                Exponent: 65537 (0x10001)
        X509v3 extensions:
            X509v3 Basic Constraints: 
                CA:FALSE
            Netscape Comment: 
                OpenSSL Generated Certificate
            X509v3 Subject Key Identifier: 
                DD:63:64:36:08:C5:2E:46:5E:86:87:19:0B:EB:29:2C:6F:25:7E:6B
            X509v3 Authority Key Identifier: 
                keyid:75:E8:B1:5D:FD:14:00:8C:C7:5F:C7:0E:D6:02:8B:56:48:20:12:84
                DirName:/C=DE/ST=Bayern/L=Munich/O=Home/OU=Apache WSS4J/CN=Werner
                serial:11:8E:29:58:04:58:67:B0:43:BE:B3:3E:B4:34:95:F5:E6:7E:BC:8A

    Signature Algorithm: sha256WithRSAEncryption
         5b:ed:7d:7d:64:4a:88:63:1b:b6:ca:b1:7b:0e:64:3e:41:7b:
         f0:95:19:67:5d:b8:9f:50:78:19:ef:66:b6:02:79:d2:be:3b:
         8b:3b:56:28:3d:ab:53:14:64:14:81:f3:71:f4:da:81:45:3a:
         e8:2c:2d:61:5f:dc:08:b2:1d:ae:77:db:2c:c0:66:0e:3e:d0:
         80:da:00:8e:81:97:e8:f1:e0:5d:c4:f1:b1:99:ff:23:af:4a:
         e2:46:dd:69:5d:ae:fb:e8:04:18:32:54:3f:29:76:48:f8:8d:
         27:37:d6:d0:00:eb:95:83:fd:e3:d6:7d:e2:fe:ef:66:67:f4:
         96:98:5f:dc:87:65:c0:dc:66:13:be:b6:2d:bb:09:a4:ef:d7:
         5e:d1:4e:6c:15:a3:fd:07:59:7d:0a:45:2b:70:e7:04:15:89:
         f6:60:df:aa:f4:10:78:0d:38:c6:10:9c:7a:3a:a5:fc:d2:a5:
         6b:3a:74:3d:2e:17:23:39:4e:53:b0:fa:00:87:5e:51:58:35:
         73:52:a7:27:8d:a8:eb:28:7b:ab:c5:29:fb:62:b8:42:98:58:
         7b:95:0f:62:97:89:ff:1d:f3:73:df:00:9d:25:f0:f3:65:e9:
         a3:6d:24:18:c4:b7:0b:39:a7:a2:3e:88:f3:2b:05:fb:15:dc:
         74:ba:a7:95
-----BEGIN CERTIFICATE-----
MIIERTCCAy2gAwIBAgIBJDANBgkqhkiG9w0BAQsFADBmMQswCQYDVQQGEwJERTEP
MA0GA1UECAwGQmF5ZXJuMQ8wDQYDVQQHDAZNdW5pY2gxDTALBgNVBAoMBEhvbWUx
FTATBgNVBAsMDEFwYWNoZSBXU1M0SjEPMA0GA1UEAwwGV2VybmVyMB4XDTE5MDQy
MzE2NTgzMVoXDTI5MDQyMDE2NTgzMVowYTELMAkGA1UEBhMCSUUxETAPBgNVBAgT
CExlaW5zdGVyMQ8wDQYDVQQHEwZEdWJsaW4xDzANBgNVBAoTBkFwYWNoZTEOMAwG
A1UECxMFV1NTNEoxDTALBgNVBAMTBENvbG0wggEiMA0GCSqGSIb3DQEBAQUAA4IB
DwAwggEKAoIBAQCbxjiK4vf1O0fgJRQ0eGtZjYh8Hjrf8jAaspWgqgeObg/qdvII
K5GDL8u0G2mCzn3SiUNtEr5Y/a/YwS31qYP33bQKJcBdcAVgJuJzfuXZpqT+1Faf
3cvQJqMAtyoUUPJP2kvpOSlnQvbYGPkhYAn7di4sLXawz4VpqBLgw7yS1Y/Ftkf5
LL7c+eZ9Ap8zU0fDZNUj64cliS/G4nhga21s2cbXwcQKB9osi/K8lr4rCXFY8jXx
qIuRGl+Ew8T/V4Kiz3lcFWb5fh9UtUByKTjxF7DTzJWU0hGbgcRuyLGLGaCCe+tN
AZQ6KgglLJSkT6nscDD6qSnnJ68zfwQl0TB3AgMBAAGjggEBMIH+MAkGA1UdEwQC
MAAwLAYJYIZIAYb4QgENBB8WHU9wZW5TU0wgR2VuZXJhdGVkIENlcnRpZmljYXRl
MB0GA1UdDgQWBBTdY2Q2CMUuRl6GhxkL6yksbyV+azCBowYDVR0jBIGbMIGYgBR1
6LFd/RQAjMdfxw7WAotWSCAShKFqpGgwZjELMAkGA1UEBhMCREUxDzANBgNVBAgM
BkJheWVybjEPMA0GA1UEBwwGTXVuaWNoMQ0wCwYDVQQKDARIb21lMRUwEwYDVQQL
DAxBcGFjaGUgV1NTNEoxDzANBgNVBAMMBldlcm5lcoIUEY4pWARYZ7BDvrM+tDSV
9eZ+vIowDQYJKoZIhvcNAQELBQADggEBAFvtfX1kSohjG7bKsXsOZD5Be/CVGWdd
uJ9QeBnvZrYCedK+O4s7Vig9q1MUZBSB83H02oFFOugsLWFf3AiyHa532yzAZg4+
0IDaAI6Bl+jx4F3E8bGZ/yOvSuJG3WldrvvoBBgyVD8pdkj4jSc31tAA65WD/ePW
feL+72Zn9JaYX9yHZcDcZhO+ti27CaTv117RTmwVo/0HWX0KRStw5wQVifZg36r0
EHgNOMYQnHo6pfzSpWs6dD0uFyM5TlOw+gCHXlFYNXNSpyeNqOsoe6vFKftiuEKY
WHuVD2KXif8d83PfAJ0l8PNl6aNtJBjEtws5p6I+iPMrBfsV3HS6p5U=
-----END CERTIFICATE-----
