Certificate:
    Data:
        Version: 3 (0x2)
        Serial Number: 37 (0x25)
        Signature Algorithm: sha256WithRSAEncryption
        Issuer: C=DE, ST=Bayern, L=Munich, O=Home, OU=Apache WSS4J, CN=Werner
        Validity
            Not Before: Apr 23 17:00:06 2019 GMT
            Not After : Apr 20 17:00:06 2029 GMT
        Subject: C=IE, ST=Leinster, L=Dublin, O=Apache, OU=WSS4J, CN=Colm
        Subject Public Key Info:
            Public Key Algorithm: rsaEncryption
                RSA Public-Key: (2048 bit)
                Modulus:
                    00:8c:19:5e:36:19:59:77:33:9f:b5:ab:a4:1d:87:
                    c0:16:80:a3:bb:b2:5c:ac:8f:e0:e8:d7:26:ff:61:
                    30:8c:7e:89:a3:95:da:9f:41:fa:6f:c0:41:cb:60:
                    73:0f:b4:6b:bf:24:1d:e2:af:29:19:dc:95:0d:e9:
                    cd:3c:90:f5:14:ce:a1:9e:ae:3d:05:5b:13:82:db:
                    5e:b0:ad:2f:97:24:46:f4:28:c8:a7:a5:0d:98:20:
                    ad:b4:41:3a:9d:0a:bc:0a:87:f0:ee:98:cf:07:18:
                    1b:93:32:57:1a:98:fd:12:9f:05:86:ed:85:ea:ae:
                    ca:dc:fe:fe:71:3c:47:7e:ec:cf:9d:ce:c1:79:3c:
                    e0:7a:ce:be:8a:09:6d:19:e4:9e:90:47:aa:d5:3b:
                    ea:f7:22:9a:2b:35:78:33:3c:04:e0:78:6a:ad:e8:
                    98:41:c6:10:37:c7:30:74:5c:b7:f0:1b:f2:ba:82:
                    fa:c6:c9:32:b3:55:cd:19:a1:f6:ac:53:f5:48:52:
                    9c:7c:16:c7:67:ef:28:0e:eb:6b:81:10:19:9a:5d:
                    aa:d1:3b:69:f3:fb:27:ce:20:15:bc:d2:20:11:30:
                    1a:2d:5d:2d:b5:26:98:1a:a1:59:c6:08:a3:95:84:
                    08:b5:f3:82:c6:6c:51:40:a3:9d:29:c8:77:45:c5:
                    91:fd
                Exponent: 65537 (0x10001)
        X509v3 extensions:
            X509v3 Basic Constraints: 
                CA:FALSE
            Netscape Comment: 
                OpenSSL Generated Certificate
            X509v3 Subject Key Identifier: 
                EF:AF:69:A3:26:8A:6F:27:9D:DB:98:1F:34:D9:0B:5E:49:F4:F8:D0
            X509v3 Authority Key Identifier: 
                keyid:75:E8:B1:5D:FD:14:00:8C:C7:5F:C7:0E:D6:02:8B:56:48:20:12:84
                DirName:/C=DE/ST=Bayern/L=Munich/O=Home/OU=Apache WSS4J/CN=Werner
                serial:11:8E:29:58:04:58:67:B0:43:BE:B3:3E:B4:34:95:F5:E6:7E:BC:8A

    Signature Algorithm: sha256WithRSAEncryption
         5e:28:fd:91:44:e8:b4:e8:b3:bb:03:8f:5a:4f:9b:b2:cd:1d:
         a2:06:cb:fe:85:fb:1b:8c:4e:ea:5e:c1:a3:eb:08:72:cf:8d:
         33:3f:39:ee:61:2a:f3:ae:ad:f3:d4:55:d6:a4:ab:fe:a3:0c:
         be:02:a7:80:73:6a:26:b1:44:65:50:9f:97:96:12:e5:94:62:
         9b:18:55:70:79:ae:ed:c0:e1:2d:e3:f9:df:84:ab:55:06:8c:
         2b:5b:57:3e:23:bf:1e:ed:36:e3:08:b7:2f:9a:6a:53:9c:ca:
         9c:72:51:c7:68:9f:75:f4:3c:42:a2:93:b6:58:2b:e6:2b:8e:
         dd:ad:28:fe:81:c4:c1:8e:56:62:21:f8:5d:6b:13:10:c4:1f:
         49:f6:b7:26:2d:bd:d9:98:92:2d:83:a9:02:15:f2:ac:57:54:
         d5:10:f8:b6:1d:d4:6e:cb:30:e0:7a:6e:ea:76:ab:c9:66:08:
         ab:68:24:72:a7:23:46:8a:be:b2:20:72:44:8d:03:6e:78:ca:
         05:65:20:c5:a8:58:47:89:b4:1e:95:15:58:94:57:ab:cf:ff:
         15:36:94:a2:a4:06:fe:7b:6e:6a:30:47:1e:bd:95:12:b3:fe:
         0a:05:33:b7:bf:d3:34:7f:52:e5:09:80:2c:37:6b:2d:33:7c:
         cd:be:14:f0
-----BEGIN CERTIFICATE-----
MIIERTCCAy2gAwIBAgIBJTANBgkqhkiG9w0BAQsFADBmMQswCQYDVQQGEwJERTEP
MA0GA1UECAwGQmF5ZXJuMQ8wDQYDVQQHDAZNdW5pY2gxDTALBgNVBAoMBEhvbWUx
FTATBgNVBAsMDEFwYWNoZSBXU1M0SjEPMA0GA1UEAwwGV2VybmVyMB4XDTE5MDQy
MzE3MDAwNloXDTI5MDQyMDE3MDAwNlowYTELMAkGA1UEBhMCSUUxETAPBgNVBAgT
CExlaW5zdGVyMQ8wDQYDVQQHEwZEdWJsaW4xDzANBgNVBAoTBkFwYWNoZTEOMAwG
A1UECxMFV1NTNEoxDTALBgNVBAMTBENvbG0wggEiMA0GCSqGSIb3DQEBAQUAA4IB
DwAwggEKAoIBAQCMGV42GVl3M5+1q6Qdh8AWgKO7slysj+Do1yb/YTCMfomjldqf
QfpvwEHLYHMPtGu/JB3irykZ3JUN6c08kPUUzqGerj0FWxOC216wrS+XJEb0KMin
pQ2YIK20QTqdCrwKh/DumM8HGBuTMlcamP0SnwWG7YXqrsrc/v5xPEd+7M+dzsF5
POB6zr6KCW0Z5J6QR6rVO+r3IporNXgzPATgeGqt6JhBxhA3xzB0XLfwG/K6gvrG
yTKzVc0ZofasU/VIUpx8Fsdn7ygO62uBEBmaXarRO2nz+yfOIBW80iARMBotXS21
JpgaoVnGCKOVhAi184LGbFFAo50pyHdFxZH9AgMBAAGjggEBMIH+MAkGA1UdEwQC
MAAwLAYJYIZIAYb4QgENBB8WHU9wZW5TU0wgR2VuZXJhdGVkIENlcnRpZmljYXRl
MB0GA1UdDgQWBBTvr2mjJopvJ53bmB802QteSfT40DCBowYDVR0jBIGbMIGYgBR1
6LFd/RQAjMdfxw7WAotWSCAShKFqpGgwZjELMAkGA1UEBhMCREUxDzANBgNVBAgM
BkJheWVybjEPMA0GA1UEBwwGTXVuaWNoMQ0wCwYDVQQKDARIb21lMRUwEwYDVQQL
DAxBcGFjaGUgV1NTNEoxDzANBgNVBAMMBldlcm5lcoIUEY4pWARYZ7BDvrM+tDSV
9eZ+vIowDQYJKoZIhvcNAQELBQADggEBAF4o/ZFE6LTos7sDj1pPm7LNHaIGy/6F
+xuMTupewaPrCHLPjTM/Oe5hKvOurfPUVdakq/6jDL4Cp4BzaiaxRGVQn5eWEuWU
YpsYVXB5ru3A4S3j+d+Eq1UGjCtbVz4jvx7tNuMIty+aalOcypxyUcdon3X0PEKi
k7ZYK+Yrjt2tKP6BxMGOVmIh+F1rExDEH0n2tyYtvdmYki2DqQIV8qxXVNUQ+LYd
1G7LMOB6bup2q8lmCKtoJHKnI0aKvrIgckSNA254ygVlIMWoWEeJtB6VFViUV6vP
/xU2lKKkBv57bmowRx69lRKz/goFM7e/0zR/UuUJgCw3ay0zfM2+FPA=
-----END CERTIFICATE-----
