Certificate:
    Data:
        Version: 3 (0x2)
        Serial Number: 38 (0x26)
        Signature Algorithm: sha256WithRSAEncryption
        Issuer: C=DE, ST=Bayern, L=Munich, O=Home, OU=Apache WSS4J, CN=Werner
        Validity
            Not Before: Apr 23 17:02:41 2019 GMT
            Not After : Apr 20 17:02:41 2029 GMT
        Subject: C=IE, ST=Leinster, L=Dublin, O=Apache, OU=WSS4J, CN=Colm
        Subject Public Key Info:
            Public Key Algorithm: rsaEncryption
                RSA Public-Key: (2048 bit)
                Modulus:
                    00:8c:95:5f:c1:20:28:b6:f5:aa:0e:6f:d6:71:4c:
                    38:d8:42:45:f8:07:09:93:a8:97:fc:21:97:4b:53:
                    35:46:8e:29:50:b2:03:d2:0c:10:53:40:7f:b4:13:
                    0f:e4:9b:04:c4:d7:d5:24:2c:4f:82:aa:c5:a9:7e:
                    6e:1d:43:22:59:45:5e:22:d8:a2:48:f7:2d:de:ad:
                    61:c7:40:9c:39:40:d7:af:6d:3d:38:2d:bb:2e:cf:
                    aa:80:2f:15:4c:60:6c:bb:4f:ee:8a:27:50:16:eb:
                    fd:a5:f0:09:c3:14:50:cb:e2:95:9c:83:33:a6:4c:
                    08:31:ff:ff:26:ee:2b:67:9b:67:6f:e1:36:cd:3b:
                    7a:17:93:01:74:ba:cb:37:94:62:7f:17:b2:98:cf:
                    c2:b9:d9:84:2d:51:4d:0a:ab:bc:e3:26:56:40:32:
                    73:f4:22:10:54:d5:22:df:f8:2f:3b:79:d2:ab:d4:
                    59:ff:1a:f4:1c:67:00:8c:54:e2:14:58:57:fa:be:
                    bb:93:15:95:7e:5a:3e:d5:92:36:7d:fa:6a:6a:0c:
                    d3:79:8e:f6:4d:fe:3d:67:4a:46:7b:ef:79:a1:87:
                    15:73:d9:aa:09:14:c3:4e:70:8d:14:5c:1c:2e:d1:
                    96:97:e7:44:15:c3:ea:8d:2e:a1:5a:d0:3f:3d:24:
                    ac:0f
                Exponent: 65537 (0x10001)
        X509v3 extensions:
            X509v3 Basic Constraints: 
                CA:FALSE
            Netscape Comment: 
                OpenSSL Generated Certificate
            X509v3 Subject Key Identifier: 
                90:A6:C1:17:D0:9D:CE:E5:E5:91:4A:7C:CD:E7:4D:E9:F8:9C:78:6F
            X509v3 Authority Key Identifier: 
                keyid:75:E8:B1:5D:FD:14:00:8C:C7:5F:C7:0E:D6:02:8B:56:48:20:12:84
                DirName:/C=DE/ST=Bayern/L=Munich/O=Home/OU=Apache WSS4J/CN=Werner
                serial:11:8E:29:58:04:58:67:B0:43:BE:B3:3E:B4:34:95:F5:E6:7E:BC:8A

    Signature Algorithm: sha256WithRSAEncryption
         08:ca:26:11:1c:55:f7:d8:36:e9:80:24:79:af:5b:e7:46:f5:
         28:e4:30:ce:eb:52:ff:2f:d9:df:ef:c1:05:a1:a3:e9:bc:f9:
         7d:2c:c8:ff:36:a8:78:d3:ef:b5:98:be:16:fb:03:22:74:95:
         8a:a2:95:d8:da:5c:c4:6c:c5:61:e0:f6:57:6d:f1:8f:70:93:
         14:fa:f5:c8:cb:94:fc:21:86:20:71:f5:08:05:60:30:73:55:
         60:2f:85:bb:a9:da:10:f9:6a:dd:09:d5:58:14:60:48:47:4b:
         6d:bb:71:95:48:ec:a4:ae:5a:83:0d:72:01:13:3c:fc:bc:0a:
         d7:5f:79:a9:b5:96:68:5b:9f:70:e3:67:ff:b2:f5:58:42:64:
         50:89:8e:21:8b:0c:8f:e2:18:62:30:5c:a4:a0:d4:66:7d:3c:
         68:99:03:87:f5:fd:0c:55:f4:b3:ea:c1:87:c9:b0:86:d7:c9:
         06:f0:a5:6d:72:36:da:6b:59:d2:29:88:74:35:3b:f9:e7:06:
         79:8b:dc:ec:f2:1d:38:51:ab:38:2a:c4:04:17:cf:bb:e5:d6:
         7f:45:dd:44:69:99:76:56:6e:b5:e2:8f:46:7a:fd:b3:2a:c4:
         f7:ed:b6:fe:73:70:11:9e:8b:86:74:92:31:eb:fc:a7:5f:4f:
         84:0a:9f:61
-----BEGIN CERTIFICATE-----
MIIERTCCAy2gAwIBAgIBJjANBgkqhkiG9w0BAQsFADBmMQswCQYDVQQGEwJERTEP
MA0GA1UECAwGQmF5ZXJuMQ8wDQYDVQQHDAZNdW5pY2gxDTALBgNVBAoMBEhvbWUx
FTATBgNVBAsMDEFwYWNoZSBXU1M0SjEPMA0GA1UEAwwGV2VybmVyMB4XDTE5MDQy
MzE3MDI0MVoXDTI5MDQyMDE3MDI0MVowYTELMAkGA1UEBhMCSUUxETAPBgNVBAgT
CExlaW5zdGVyMQ8wDQYDVQQHEwZEdWJsaW4xDzANBgNVBAoTBkFwYWNoZTEOMAwG
A1UECxMFV1NTNEoxDTALBgNVBAMTBENvbG0wggEiMA0GCSqGSIb3DQEBAQUAA4IB
DwAwggEKAoIBAQCMlV/BICi29aoOb9ZxTDjYQkX4BwmTqJf8IZdLUzVGjilQsgPS
DBBTQH+0Ew/kmwTE19UkLE+CqsWpfm4dQyJZRV4i2KJI9y3erWHHQJw5QNevbT04
Lbsuz6qALxVMYGy7T+6KJ1AW6/2l8AnDFFDL4pWcgzOmTAgx//8m7itnm2dv4TbN
O3oXkwF0uss3lGJ/F7KYz8K52YQtUU0Kq7zjJlZAMnP0IhBU1SLf+C87edKr1Fn/
GvQcZwCMVOIUWFf6vruTFZV+Wj7VkjZ9+mpqDNN5jvZN/j1nSkZ773mhhxVz2aoJ
FMNOcI0UXBwu0ZaX50QVw+qNLqFa0D89JKwPAgMBAAGjggEBMIH+MAkGA1UdEwQC
MAAwLAYJYIZIAYb4QgENBB8WHU9wZW5TU0wgR2VuZXJhdGVkIENlcnRpZmljYXRl
MB0GA1UdDgQWBBSQpsEX0J3O5eWRSnzN503p+Jx4bzCBowYDVR0jBIGbMIGYgBR1
6LFd/RQAjMdfxw7WAotWSCAShKFqpGgwZjELMAkGA1UEBhMCREUxDzANBgNVBAgM
BkJheWVybjEPMA0GA1UEBwwGTXVuaWNoMQ0wCwYDVQQKDARIb21lMRUwEwYDVQQL
DAxBcGFjaGUgV1NTNEoxDzANBgNVBAMMBldlcm5lcoIUEY4pWARYZ7BDvrM+tDSV
9eZ+vIowDQYJKoZIhvcNAQELBQADggEBAAjKJhEcVffYNumAJHmvW+dG9SjkMM7r
Uv8v2d/vwQWho+m8+X0syP82qHjT77WYvhb7AyJ0lYqildjaXMRsxWHg9ldt8Y9w
kxT69cjLlPwhhiBx9QgFYDBzVWAvhbup2hD5at0J1VgUYEhHS227cZVI7KSuWoMN
cgETPPy8Ctdfeam1lmhbn3DjZ/+y9VhCZFCJjiGLDI/iGGIwXKSg1GZ9PGiZA4f1
/QxV9LPqwYfJsIbXyQbwpW1yNtprWdIpiHQ1O/nnBnmL3OzyHThRqzgqxAQXz7vl
1n9F3URpmXZWbrXij0Z6/bMqxPfttv5zcBGei4Z0kjHr/KdfT4QKn2E=
-----END CERTIFICATE-----
