Certificate:
    Data:
        Version: 3 (0x2)
        Serial Number: 39 (0x27)
        Signature Algorithm: sha256WithRSAEncryption
        Issuer: C=DE, ST=Bayern, L=Munich, O=Home, OU=Apache WSS4J, CN=Werner
        Validity
            Not Before: Apr 23 17:04:40 2019 GMT
            Not After : Apr 24 17:04:40 2019 GMT
        Subject: C=IE, ST=Leinster, L=Dublin, O=Apache, OU=WSS4J, CN=Colm
        Subject Public Key Info:
            Public Key Algorithm: rsaEncryption
                RSA Public-Key: (2048 bit)
                Modulus:
                    00:a3:e0:da:aa:3a:81:16:30:be:13:a2:71:b9:6c:
                    33:c5:db:15:9d:cb:14:27:47:2c:e8:44:20:3c:27:
                    3e:a7:cf:a4:0e:76:a8:2a:f6:db:a0:b8:80:23:3c:
                    40:f3:c4:01:93:74:83:fc:48:c4:fa:12:78:50:b6:
                    83:e9:6c:41:0f:14:c0:b9:d1:76:e9:0d:0e:25:2d:
                    38:44:3f:41:c6:65:cb:03:ad:8d:14:8f:a0:93:26:
                    28:8f:9a:7a:dd:bf:85:3a:b0:35:2b:ae:d6:05:9f:
                    0f:ac:7e:1e:c1:17:dd:d6:0b:11:5a:72:e4:bd:c8:
                    b5:60:e4:66:fc:59:64:f0:08:20:0c:77:00:32:2b:
                    bc:3d:5c:c9:10:48:4f:82:af:37:42:7c:b3:a4:e0:
                    e0:16:bb:64:09:fd:c3:0c:b6:ac:a8:76:be:32:18:
                    55:29:aa:78:8f:89:04:20:68:95:49:43:e4:ab:62:
                    f8:5e:b8:5b:34:84:a2:dd:86:2d:6e:83:f4:7c:00:
                    27:01:f8:93:ab:a5:70:39:e7:6d:0e:b5:9a:75:55:
                    97:cf:68:cc:2c:eb:c5:65:90:2c:da:98:38:c1:65:
                    a1:3b:af:0b:f9:ac:a6:5d:10:b1:e2:9e:41:07:79:
                    b7:a0:6a:51:4f:1c:b5:ce:f6:01:0f:43:50:29:a2:
                    60:b9
                Exponent: 65537 (0x10001)
        X509v3 extensions:
            X509v3 Basic Constraints: 
                CA:FALSE
            Netscape Comment: 
                OpenSSL Generated Certificate
            X509v3 Subject Key Identifier: 
                FC:52:AE:28:AF:8D:3D:1B:9F:1D:DF:D5:99:8E:F6:FE:45:B4:30:70
            X509v3 Authority Key Identifier: 
                keyid:75:E8:B1:5D:FD:14:00:8C:C7:5F:C7:0E:D6:02:8B:56:48:20:12:84
                DirName:/C=DE/ST=Bayern/L=Munich/O=Home/OU=Apache WSS4J/CN=Werner
                serial:11:8E:29:58:04:58:67:B0:43:BE:B3:3E:B4:34:95:F5:E6:7E:BC:8A

    Signature Algorithm: sha256WithRSAEncryption
         01:c8:23:34:fd:29:bc:ea:d4:eb:f2:17:07:c9:71:70:32:c4:
         0d:9e:e5:64:d3:46:38:bb:49:f0:cb:7b:6b:ba:3a:2a:f8:d1:
         d4:9f:39:41:65:95:9a:08:ad:ad:1f:1c:08:19:7a:22:66:32:
         37:97:8b:d0:70:55:13:ca:1d:57:b6:e9:a8:11:a6:e0:9c:84:
         57:b8:a7:2c:62:f3:05:49:ea:42:57:89:1a:5e:bd:b3:fe:b2:
         19:ed:05:92:cc:2b:3c:74:20:3a:41:40:9d:78:00:c0:55:dd:
         01:3e:e2:f0:dc:37:d0:18:1f:1d:06:59:0d:24:26:61:db:66:
         aa:e3:40:ee:fa:7e:a5:bb:55:e2:69:dc:6d:65:2f:45:dc:63:
         67:bd:f9:1d:c8:7d:92:0a:29:7f:20:2d:9d:a9:ec:a1:b3:49:
         eb:8c:3c:17:93:fc:2e:cc:34:9e:bc:20:00:ca:22:72:aa:48:
         27:d0:c9:05:d4:b3:20:45:52:89:0d:29:36:f6:f2:a4:a4:51:
         15:ca:7e:f2:c3:6a:cd:2a:4e:00:30:02:f4:b9:1c:e5:96:9f:
         58:80:fc:73:8d:cd:ac:1d:e7:a6:ab:63:c3:2b:35:53:56:4a:
         24:65:5e:22:3c:5e:52:c0:4d:ae:e6:da:02:45:6e:8b:8a:47:
         32:cf:fe:6a
-----BEGIN CERTIFICATE-----
MIIERTCCAy2gAwIBAgIBJzANBgkqhkiG9w0BAQsFADBmMQswCQYDVQQGEwJERTEP
MA0GA1UECAwGQmF5ZXJuMQ8wDQYDVQQHDAZNdW5pY2gxDTALBgNVBAoMBEhvbWUx
FTATBgNVBAsMDEFwYWNoZSBXU1M0SjEPMA0GA1UEAwwGV2VybmVyMB4XDTE5MDQy
MzE3MDQ0MFoXDTE5MDQyNDE3MDQ0MFowYTELMAkGA1UEBhMCSUUxETAPBgNVBAgT
CExlaW5zdGVyMQ8wDQYDVQQHEwZEdWJsaW4xDzANBgNVBAoTBkFwYWNoZTEOMAwG
A1UECxMFV1NTNEoxDTALBgNVBAMTBENvbG0wggEiMA0GCSqGSIb3DQEBAQUAA4IB
DwAwggEKAoIBAQCj4NqqOoEWML4TonG5bDPF2xWdyxQnRyzoRCA8Jz6nz6QOdqgq
9tuguIAjPEDzxAGTdIP8SMT6EnhQtoPpbEEPFMC50XbpDQ4lLThEP0HGZcsDrY0U
j6CTJiiPmnrdv4U6sDUrrtYFnw+sfh7BF93WCxFacuS9yLVg5Gb8WWTwCCAMdwAy
K7w9XMkQSE+CrzdCfLOk4OAWu2QJ/cMMtqyodr4yGFUpqniPiQQgaJVJQ+SrYvhe
uFs0hKLdhi1ug/R8ACcB+JOrpXA5520OtZp1VZfPaMws68VlkCzamDjBZaE7rwv5
rKZdELHinkEHebegalFPHLXO9gEPQ1ApomC5AgMBAAGjggEBMIH+MAkGA1UdEwQC
MAAwLAYJYIZIAYb4QgENBB8WHU9wZW5TU0wgR2VuZXJhdGVkIENlcnRpZmljYXRl
MB0GA1UdDgQWBBT8Uq4or409G58d39WZjvb+RbQwcDCBowYDVR0jBIGbMIGYgBR1
6LFd/RQAjMdfxw7WAotWSCAShKFqpGgwZjELMAkGA1UEBhMCREUxDzANBgNVBAgM
BkJheWVybjEPMA0GA1UEBwwGTXVuaWNoMQ0wCwYDVQQKDARIb21lMRUwEwYDVQQL
DAxBcGFjaGUgV1NTNEoxDzANBgNVBAMMBldlcm5lcoIUEY4pWARYZ7BDvrM+tDSV
9eZ+vIowDQYJKoZIhvcNAQELBQADggEBAAHIIzT9Kbzq1OvyFwfJcXAyxA2e5WTT
Rji7SfDLe2u6Oir40dSfOUFllZoIra0fHAgZeiJmMjeXi9BwVRPKHVe26agRpuCc
hFe4pyxi8wVJ6kJXiRpevbP+shntBZLMKzx0IDpBQJ14AMBV3QE+4vDcN9AYHx0G
WQ0kJmHbZqrjQO76fqW7VeJp3G1lL0XcY2e9+R3IfZIKKX8gLZ2p7KGzSeuMPBeT
/C7MNJ68IADKInKqSCfQyQXUsyBFUokNKTb28qSkURXKfvLDas0qTgAwAvS5HOWW
n1iA/HONzawd56arY8MrNVNWSiRlXiI8XlLATa7m2gJFbouKRzLP/mo=
-----END CERTIFICATE-----
