Certificate:
    Data:
        Version: 3 (0x2)
        Serial Number: 40 (0x28)
        Signature Algorithm: sha256WithRSAEncryption
        Issuer: C=DE, ST=Bayern, L=Munich, O=Home, OU=Apache WSS4J, CN=Werner
        Validity
            Not Before: Apr 24 07:14:09 2019 GMT
            Not After : Apr 21 07:14:09 2029 GMT
        Subject: C=IE, ST=Leinster, L=Dublin, O=Apache, OU=WSS4J, CN=Colm
        Subject Public Key Info:
            Public Key Algorithm: rsaEncryption
                RSA Public-Key: (2048 bit)
                Modulus:
                    00:b4:0d:7f:09:0e:75:bc:ba:e4:f3:5f:72:51:5e:
                    60:75:4f:8b:0b:0f:1b:6f:82:2c:ce:4a:3a:5d:8a:
                    ce:e5:66:94:33:de:8f:43:9d:18:d3:13:4e:eb:d9:
                    7b:ac:fb:6c:10:2f:87:56:a2:85:d2:2d:6a:59:a0:
                    9c:e2:72:1c:7e:44:83:34:36:84:b6:20:1f:aa:9c:
                    ff:74:03:8d:4c:6d:21:87:b3:c5:32:7c:c2:6b:27:
                    3a:e6:07:05:f5:b8:c0:6f:d3:9c:c5:b4:1b:ed:5c:
                    d1:7e:fe:5c:c3:97:cc:8d:03:1a:cb:22:1a:2f:3b:
                    16:55:be:79:ef:83:35:27:25:49:59:51:61:cd:72:
                    17:eb:e2:d8:eb:33:d0:26:33:5b:8d:80:67:e2:a3:
                    31:80:8f:f1:76:9b:89:08:45:a9:81:fe:63:ae:19:
                    60:df:86:95:56:d7:3a:39:aa:4e:51:eb:ea:12:30:
                    c5:a1:cd:84:2c:45:47:f1:af:85:70:b2:8f:cc:be:
                    d7:4e:90:c4:1a:e9:05:03:01:d3:7a:b4:39:07:9e:
                    9b:d0:bb:cc:96:6a:ea:b4:28:d3:a1:8f:66:ea:e6:
                    e8:e5:96:6a:19:a1:b9:d1:4b:e7:8c:16:e5:50:75:
                    8d:fa:36:bb:8f:ec:37:7b:b7:3d:82:e9:ac:80:d9:
                    f0:01
                Exponent: 65537 (0x10001)
        X509v3 extensions:
            X509v3 Basic Constraints: 
                CA:FALSE
            Netscape Comment: 
                OpenSSL Generated Certificate
            X509v3 Subject Key Identifier: 
                53:3B:91:5A:B4:6A:80:7A:69:BB:8E:F8:67:57:CA:58:25:DE:C9:8F
            X509v3 Authority Key Identifier: 
                keyid:75:E8:B1:5D:FD:14:00:8C:C7:5F:C7:0E:D6:02:8B:56:48:20:12:84
                DirName:/C=DE/ST=Bayern/L=Munich/O=Home/OU=Apache WSS4J/CN=Werner
                serial:11:8E:29:58:04:58:67:B0:43:BE:B3:3E:B4:34:95:F5:E6:7E:BC:8A

    Signature Algorithm: sha256WithRSAEncryption
         93:aa:0c:20:4c:23:88:79:c3:a0:85:ac:0f:fd:f6:40:7f:05:
         fd:3f:1a:17:62:74:e7:1f:37:7a:e9:4a:f4:d0:0e:74:cb:36:
         85:e7:ee:aa:4e:0a:7b:db:37:7b:59:ab:b9:ae:5c:2c:cd:81:
         c7:ab:b1:ed:e9:95:c1:4b:eb:65:4f:d8:5a:14:3b:32:f6:03:
         17:25:45:8e:d4:ee:2e:97:c3:53:bc:84:6d:51:12:fb:77:ed:
         ff:51:32:82:7f:8e:b8:4f:3f:2b:d8:88:51:f7:7d:4d:f6:f5:
         cf:ed:12:73:24:cd:f7:f6:a7:15:aa:37:a8:92:d1:23:60:bc:
         02:d8:32:6e:ae:c9:08:fb:f1:2d:9f:11:e7:25:d9:57:87:d4:
         39:75:e3:6c:3c:8a:73:e2:39:63:51:16:9b:81:92:43:e0:9f:
         1d:5a:95:ed:b7:59:05:f5:62:8d:44:c3:86:28:b3:2a:1d:b3:
         9d:20:74:8f:ae:34:50:f2:ca:b6:dd:c2:7b:26:55:d5:91:2d:
         c1:df:51:fe:c7:61:56:77:cd:12:a5:db:28:cf:f5:81:34:0d:
         3b:37:c6:6f:21:f0:40:4b:c5:ef:75:8a:9e:2c:da:ae:3c:a5:
         4c:24:1f:00:a2:f7:45:ce:4a:7d:c0:70:f3:76:f8:e5:1a:2d:
         2d:fb:0b:21
-----BEGIN CERTIFICATE-----
MIIERTCCAy2gAwIBAgIBKDANBgkqhkiG9w0BAQsFADBmMQswCQYDVQQGEwJERTEP
MA0GA1UECAwGQmF5ZXJuMQ8wDQYDVQQHDAZNdW5pY2gxDTALBgNVBAoMBEhvbWUx
FTATBgNVBAsMDEFwYWNoZSBXU1M0SjEPMA0GA1UEAwwGV2VybmVyMB4XDTE5MDQy
NDA3MTQwOVoXDTI5MDQyMTA3MTQwOVowYTELMAkGA1UEBhMCSUUxETAPBgNVBAgT
CExlaW5zdGVyMQ8wDQYDVQQHEwZEdWJsaW4xDzANBgNVBAoTBkFwYWNoZTEOMAwG
A1UECxMFV1NTNEoxDTALBgNVBAMTBENvbG0wggEiMA0GCSqGSIb3DQEBAQUAA4IB
DwAwggEKAoIBAQC0DX8JDnW8uuTzX3JRXmB1T4sLDxtvgizOSjpdis7lZpQz3o9D
nRjTE07r2Xus+2wQL4dWooXSLWpZoJzichx+RIM0NoS2IB+qnP90A41MbSGHs8Uy
fMJrJzrmBwX1uMBv05zFtBvtXNF+/lzDl8yNAxrLIhovOxZVvnnvgzUnJUlZUWHN
chfr4tjrM9AmM1uNgGfiozGAj/F2m4kIRamB/mOuGWDfhpVW1zo5qk5R6+oSMMWh
zYQsRUfxr4Vwso/MvtdOkMQa6QUDAdN6tDkHnpvQu8yWauq0KNOhj2bq5ujllmoZ
obnRS+eMFuVQdY36NruP7Dd7tz2C6ayA2fABAgMBAAGjggEBMIH+MAkGA1UdEwQC
MAAwLAYJYIZIAYb4QgENBB8WHU9wZW5TU0wgR2VuZXJhdGVkIENlcnRpZmljYXRl
MB0GA1UdDgQWBBRTO5FatGqAemm7jvhnV8pYJd7JjzCBowYDVR0jBIGbMIGYgBR1
6LFd/RQAjMdfxw7WAotWSCAShKFqpGgwZjELMAkGA1UEBhMCREUxDzANBgNVBAgM
BkJheWVybjEPMA0GA1UEBwwGTXVuaWNoMQ0wCwYDVQQKDARIb21lMRUwEwYDVQQL
DAxBcGFjaGUgV1NTNEoxDzANBgNVBAMMBldlcm5lcoIUEY4pWARYZ7BDvrM+tDSV
9eZ+vIowDQYJKoZIhvcNAQELBQADggEBAJOqDCBMI4h5w6CFrA/99kB/Bf0/Ghdi
dOcfN3rpSvTQDnTLNoXn7qpOCnvbN3tZq7muXCzNgcerse3plcFL62VP2FoUOzL2
AxclRY7U7i6Xw1O8hG1REvt37f9RMoJ/jrhPPyvYiFH3fU329c/tEnMkzff2pxWq
N6iS0SNgvALYMm6uyQj78S2fEecl2VeH1Dl142w8inPiOWNRFpuBkkPgnx1ale23
WQX1Yo1Ew4Yosyods50gdI+uNFDyyrbdwnsmVdWRLcHfUf7HYVZ3zRKl2yjP9YE0
DTs3xm8h8EBLxe91ip4s2q48pUwkHwCi90XOSn3AcPN2+OUaLS37CyE=
-----END CERTIFICATE-----
