Certificate:
    Data:
        Version: 3 (0x2)
        Serial Number: 24 (0x18)
        Signature Algorithm: md5WithRSAEncryption
        Issuer: C=DE, ST=Bayern, L=Munich, O=Home, OU=Apache WSS4J, CN=Werner
        Validity
            Not Before: Jan 17 12:49:14 2011 GMT
            Not After : Jan 14 12:49:14 2021 GMT
        Subject: C=IE, ST=Leinster, L=Dublin, O=Apache, OU=WSS4J, CN=Server
        Subject Public Key Info:
            Public Key Algorithm: dsaEncryption
            DSA Public Key:
                pub: 
                    63:ef:cc:b6:55:dc:78:2f:51:87:e0:d0:25:9a:42:
                    ff:cc:f1:c8:32:b6:90:f0:b9:37:1a:ef:6c:4c:fb:
                    e9:05:49:f0:07:25:00:93:64:36:12:98:0c:d8:9b:
                    56:d7:da:da:bb:0d:c7:86:81:e0:78:31:b0:2a:73:
                    22:d1:82:c4:9a:48:92:08:88:e4:44:f9:11:66:04:
                    33:8e:42:a4:b5:3f:bf:03:d1:e1:5d:1f:b3:8e:27:
                    8b:fa:bd:54:70:6a:9c:81:0f:84:9f:8c:fb:09:af:
                    87:43:21:04:c0:af:9f:67:11:6a:50:81:82:5f:b5:
                    2f:bf:f8:31:83:ad:65:51
                P:   
                    00:fd:7f:53:81:1d:75:12:29:52:df:4a:9c:2e:ec:
                    e4:e7:f6:11:b7:52:3c:ef:44:00:c3:1e:3f:80:b6:
                    51:26:69:45:5d:40:22:51:fb:59:3d:8d:58:fa:bf:
                    c5:f5:ba:30:f6:cb:9b:55:6c:d7:81:3b:80:1d:34:
                    6f:f2:66:60:b7:6b:99:50:a5:a4:9f:9f:e8:04:7b:
                    10:22:c2:4f:bb:a9:d7:fe:b7:c6:1b:f8:3b:57:e7:
                    c6:a8:a6:15:0f:04:fb:83:f6:d3:c5:1e:c3:02:35:
                    54:13:5a:16:91:32:f6:75:f3:ae:2b:61:d7:2a:ef:
                    f2:22:03:19:9d:d1:48:01:c7
                Q:   
                    00:97:60:50:8f:15:23:0b:cc:b2:92:b9:82:a2:eb:
                    84:0b:f0:58:1c:f5
                G:   
                    00:f7:e1:a0:85:d6:9b:3d:de:cb:bc:ab:5c:36:b8:
                    57:b9:79:94:af:bb:fa:3a:ea:82:f9:57:4c:0b:3d:
                    07:82:67:51:59:57:8e:ba:d4:59:4f:e6:71:07:10:
                    81:80:b4:49:16:71:23:e8:4c:28:16:13:b7:cf:09:
                    32:8c:c8:a6:e1:3c:16:7a:8b:54:7c:8d:28:e0:a3:
                    ae:1e:2b:b3:a6:75:91:6e:a3:7f:0b:fa:21:35:62:
                    f1:fb:62:7a:01:24:3b:cc:a4:f1:be:a8:51:90:89:
                    a8:83:df:e1:5a:e5:9f:06:92:8b:66:5e:80:7b:55:
                    25:64:01:4c:3b:fe:cf:49:2a
        X509v3 extensions:
            X509v3 Basic Constraints: 
                CA:FALSE
            Netscape Comment: 
                OpenSSL Generated Certificate
            X509v3 Subject Key Identifier: 
                4C:53:34:FB:83:D2:11:4B:D6:83:37:8B:BB:6F:1B:B6:F6:11:E0:14
            X509v3 Authority Key Identifier: 
                keyid:56:17:EF:F6:6B:8B:59:FE:23:19:68:DE:78:C0:E1:4D:67:7D:D0:66
                DirName:/C=DE/ST=Bayern/L=Munich/O=Home/OU=Apache WSS4J/CN=Werner
                serial:8D:E1:2C:0A:69:11:77:D2

    Signature Algorithm: md5WithRSAEncryption
        48:46:c9:7b:21:e2:04:c9:f0:dd:7d:7a:76:ed:9e:da:bd:c9:
        2c:cc:ec:74:c0:91:31:7c:6b:49:26:a3:c3:d5:8f:ff:0a:e5:
        1e:db:2a:7b:2f:84:50:79:28:d7:80:7b:9b:57:98:3d:b9:d5:
        51:80:86:e7:6b:bc:9d:2e:74:32:20:40:eb:dd:12:17:af:aa:
        b6:ba:61:a6:0e:07:f6:87:ab:30:65:d8:a3:f0:18:aa:54:bf:
        73:f4:e7:06:82:bc:29:7c:64:a8:bf:df:1a:46:0c:f4:d8:11:
        40:0b:70:62:92:25:8c:e7:81:ec:e0:ef:9c:71:f2:e0:93:81:
        c2:4c
-----BEGIN CERTIFICATE-----
MIIETzCCA7igAwIBAgIBGDANBgkqhkiG9w0BAQQFADBmMQswCQYDVQQGEwJERTEP
MA0GA1UECBMGQmF5ZXJuMQ8wDQYDVQQHEwZNdW5pY2gxDTALBgNVBAoTBEhvbWUx
FTATBgNVBAsTDEFwYWNoZSBXU1M0SjEPMA0GA1UEAxMGV2VybmVyMB4XDTExMDEx
NzEyNDkxNFoXDTIxMDExNDEyNDkxNFowYzELMAkGA1UEBhMCSUUxETAPBgNVBAgT
CExlaW5zdGVyMQ8wDQYDVQQHEwZEdWJsaW4xDzANBgNVBAoTBkFwYWNoZTEOMAwG
A1UECxMFV1NTNEoxDzANBgNVBAMTBlNlcnZlcjCCAbcwggEsBgcqhkjOOAQBMIIB
HwKBgQD9f1OBHXUSKVLfSpwu7OTn9hG3UjzvRADDHj+AtlEmaUVdQCJR+1k9jVj6
v8X1ujD2y5tVbNeBO4AdNG/yZmC3a5lQpaSfn+gEexAiwk+7qdf+t8Yb+DtX58ao
phUPBPuD9tPFHsMCNVQTWhaRMvZ1864rYdcq7/IiAxmd0UgBxwIVAJdgUI8VIwvM
spK5gqLrhAvwWBz1AoGBAPfhoIXWmz3ey7yrXDa4V7l5lK+7+jrqgvlXTAs9B4Jn
UVlXjrrUWU/mcQcQgYC0SRZxI+hMKBYTt88JMozIpuE8FnqLVHyNKOCjrh4rs6Z1
kW6jfwv6ITVi8ftiegEkO8yk8b6oUZCJqIPf4VrlnwaSi2ZegHtVJWQBTDv+z0kq
A4GEAAKBgGPvzLZV3HgvUYfg0CWaQv/M8cgytpDwuTca72xM++kFSfAHJQCTZDYS
mAzYm1bX2tq7DceGgeB4MbAqcyLRgsSaSJIIiORE+RFmBDOOQqS1P78D0eFdH7OO
J4v6vVRwapyBD4SfjPsJr4dDIQTAr59nEWpQgYJftS+/+DGDrWVRo4H2MIHzMAkG
A1UdEwQCMAAwLAYJYIZIAYb4QgENBB8WHU9wZW5TU0wgR2VuZXJhdGVkIENlcnRp
ZmljYXRlMB0GA1UdDgQWBBRMUzT7g9IRS9aDN4u7bxu29hHgFDCBmAYDVR0jBIGQ
MIGNgBRWF+/2a4tZ/iMZaN54wOFNZ33QZqFqpGgwZjELMAkGA1UEBhMCREUxDzAN
BgNVBAgTBkJheWVybjEPMA0GA1UEBxMGTXVuaWNoMQ0wCwYDVQQKEwRIb21lMRUw
EwYDVQQLEwxBcGFjaGUgV1NTNEoxDzANBgNVBAMTBldlcm5lcoIJAI3hLAppEXfS
MA0GCSqGSIb3DQEBBAUAA4GBAEhGyXsh4gTJ8N19enbtntq9ySzM7HTAkTF8a0km
o8PVj/8K5R7bKnsvhFB5KNeAe5tXmD251VGAhudrvJ0udDIgQOvdEhevqra6YaYO
B/aHqzBl2KPwGKpUv3P05waCvCl8ZKi/3xpGDPTYEUALcGKSJYzngezg75xx8uCT
gcJM
-----END CERTIFICATE-----
