Certificate:
    Data:
        Version: 3 (0x2)
        Serial Number: 20 (0x14)
        Signature Algorithm: md5WithRSAEncryption
        Issuer: C=DE, ST=Bayern, L=Munich, O=Home, OU=Apache WSS4J, CN=Werner
        Validity
            Not Before: Apr 24 10:37:43 2009 GMT
            Not After : Apr 22 10:37:43 2019 GMT
        Subject: C=IE, ST=Leinster, L=Dublin, O=Apache, OU=WSS4J, CN=Colm
        Subject Public Key Info:
            Public Key Algorithm: rsaEncryption
            RSA Public Key: (1024 bit)
                Modulus (1024 bit):
                    00:a4:bc:c3:c7:63:b6:82:31:d5:10:c1:5b:d9:59:
                    6b:78:38:65:13:f2:18:c0:5b:25:3d:36:2c:7d:88:
                    92:bd:82:70:3f:36:41:74:12:c7:37:96:ff:44:b2:
                    89:51:56:5b:54:49:c5:07:b8:98:bc:4a:57:46:fe:
                    34:0a:9f:6b:82:1d:ee:e1:fc:5f:37:19:b9:25:89:
                    94:8f:b4:4f:20:20:67:ef:dc:d2:7c:5a:08:48:b7:
                    6b:52:dc:45:39:c2:b4:6a:03:6d:be:cb:0a:20:f4:
                    62:ee:ca:ca:a6:54:79:28:bd:be:08:69:04:37:b6:
                    cf:96:86:ae:f4:1c:45:b9:2f
                Exponent: 65537 (0x10001)
        X509v3 extensions:
            X509v3 Basic Constraints: 
                CA:FALSE
            Netscape Comment: 
                OpenSSL Generated Certificate
            X509v3 Subject Key Identifier: 
                A0:4B:28:F8:74:C0:4D:25:9E:14:57:9D:A8:D9:8A:9E:22:F9:0E:91
            X509v3 Authority Key Identifier: 
                keyid:56:17:EF:F6:6B:8B:59:FE:23:19:68:DE:78:C0:E1:4D:67:7D:D0:66
                DirName:/C=DE/ST=Bayern/L=Munich/O=Home/OU=Apache WSS4J/CN=Werner
                serial:8D:E1:2C:0A:69:11:77:D2

    Signature Algorithm: md5WithRSAEncryption
        3d:95:d2:79:0d:b0:f3:1b:e2:b9:b0:f0:45:3c:c9:9b:b2:e0:
        48:23:6a:a9:72:17:07:c0:9c:84:b6:49:57:cc:4d:00:01:83:
        f6:03:2e:a5:41:9d:c5:7a:39:0d:6f:ec:58:3d:84:e3:d1:84:
        34:f8:81:40:74:23:fc:6e:6d:16:c1:86:c6:f4:7f:d1:22:58:
        50:3d:62:e4:01:cf:9f:86:d0:dd:fa:ed:eb:98:fe:0a:07:0d:
        1d:63:56:ad:66:0b:6c:4b:7c:1f:07:5c:66:d9:5c:f2:e3:6a:
        3d:56:26:d9:32:8a:10:1a:24:8b:d1:1a:73:c5:1e:89:ed:40:
        ff:46
-----BEGIN CERTIFICATE-----
MIIDNDCCAp2gAwIBAgIBFDANBgkqhkiG9w0BAQQFADBmMQswCQYDVQQGEwJERTEP
MA0GA1UECBMGQmF5ZXJuMQ8wDQYDVQQHEwZNdW5pY2gxDTALBgNVBAoTBEhvbWUx
FTATBgNVBAsTDEFwYWNoZSBXU1M0SjEPMA0GA1UEAxMGV2VybmVyMB4XDTA5MDQy
NDEwMzc0M1oXDTE5MDQyMjEwMzc0M1owYTELMAkGA1UEBhMCSUUxETAPBgNVBAgT
CExlaW5zdGVyMQ8wDQYDVQQHEwZEdWJsaW4xDzANBgNVBAoTBkFwYWNoZTEOMAwG
A1UECxMFV1NTNEoxDTALBgNVBAMTBENvbG0wgZ8wDQYJKoZIhvcNAQEBBQADgY0A
MIGJAoGBAKS8w8djtoIx1RDBW9lZa3g4ZRPyGMBbJT02LH2Ikr2CcD82QXQSxzeW
/0SyiVFWW1RJxQe4mLxKV0b+NAqfa4Id7uH8XzcZuSWJlI+0TyAgZ+/c0nxaCEi3
a1LcRTnCtGoDbb7LCiD0Yu7KyqZUeSi9vghpBDe2z5aGrvQcRbkvAgMBAAGjgfYw
gfMwCQYDVR0TBAIwADAsBglghkgBhvhCAQ0EHxYdT3BlblNTTCBHZW5lcmF0ZWQg
Q2VydGlmaWNhdGUwHQYDVR0OBBYEFKBLKPh0wE0lnhRXnajZip4i+Q6RMIGYBgNV
HSMEgZAwgY2AFFYX7/Zri1n+Ixlo3njA4U1nfdBmoWqkaDBmMQswCQYDVQQGEwJE
RTEPMA0GA1UECBMGQmF5ZXJuMQ8wDQYDVQQHEwZNdW5pY2gxDTALBgNVBAoTBEhv
bWUxFTATBgNVBAsTDEFwYWNoZSBXU1M0SjEPMA0GA1UEAxMGV2VybmVyggkAjeEs
CmkRd9IwDQYJKoZIhvcNAQEEBQADgYEAPZXSeQ2w8xviubDwRTzJm7LgSCNqqXIX
B8CchLZJV8xNAAGD9gMupUGdxXo5DW/sWD2E49GENPiBQHQj/G5tFsGGxvR/0SJY
UD1i5AHPn4bQ3frt65j+CgcNHWNWrWYLbEt8HwdcZtlc8uNqPVYm2TKKEBoki9Ea
c8Ueie1A/0Y=
-----END CERTIFICATE-----
