Certificate:
    Data:
        Version: 3 (0x2)
        Serial Number: 25 (0x19)
        Signature Algorithm: md5WithRSAEncryption
        Issuer: C=DE, ST=Bayern, L=Munich, O=Home, OU=Apache WSS4J, CN=Werner
        Validity
            Not Before: May 30 11:47:54 2011 GMT
            Not After : May 27 11:47:54 2021 GMT
        Subject: C=IE, ST=Leinster, L=Dublin, O=Apache, OU=WSS4J, CN=Colm
        Subject Public Key Info:
            Public Key Algorithm: rsaEncryption
            RSA Public Key: (1024 bit)
                Modulus (1024 bit):
                    00:8b:91:75:7f:57:33:5d:78:e3:cd:59:37:aa:e2:
                    41:78:42:95:b6:7d:2d:ab:61:af:36:f0:4d:58:07:
                    09:8a:65:13:ee:a8:a5:ea:da:1e:6d:49:cc:e9:52:
                    af:21:1b:02:b2:3a:bb:8b:5f:8e:33:7e:0d:07:25:
                    00:cf:e3:e6:70:ce:31:45:08:5f:85:fe:89:3b:dd:
                    b1:22:d7:2c:64:73:db:f4:3c:24:00:07:bb:5b:6a:
                    4c:7c:da:9a:1a:c8:29:3d:e0:a0:14:75:65:69:f3:
                    ba:ca:29:32:9d:fb:13:c8:bf:bc:73:dc:c1:53:b6:
                    ab:ea:84:bb:38:a4:5c:90:9f
                Exponent: 65537 (0x10001)
        X509v3 extensions:
            X509v3 Basic Constraints: 
                CA:FALSE
            Netscape Comment: 
                OpenSSL Generated Certificate
            X509v3 Subject Key Identifier: 
                1A:D4:E0:CE:0D:61:0F:E3:A0:A4:43:47:67:F8:D7:5E:85:C2:C6:CA
            X509v3 Authority Key Identifier: 
                keyid:56:17:EF:F6:6B:8B:59:FE:23:19:68:DE:78:C0:E1:4D:67:7D:D0:66
                DirName:/C=DE/ST=Bayern/L=Munich/O=Home/OU=Apache WSS4J/CN=Werner
                serial:8D:E1:2C:0A:69:11:77:D2

    Signature Algorithm: md5WithRSAEncryption
        98:43:b1:02:e3:9d:d2:af:7e:5b:6d:82:de:f4:4e:69:8a:18:
        47:5a:6d:b4:bd:95:0d:b2:96:e4:f3:b1:ce:cc:5c:c0:87:06:
        d6:3a:00:93:04:ed:7d:f3:63:cd:1d:8d:79:b9:7a:74:05:b5:
        f0:ba:97:ee:1d:fc:c9:0d:a1:e2:ef:f4:a7:ed:19:3b:ae:d7:
        a9:94:c2:ab:a0:f5:62:ce:b5:63:7a:e3:5d:72:64:e7:5e:2e:
        8c:7a:ea:07:6b:7c:ef:94:ca:ec:21:be:33:80:5a:d4:07:f6:
        4c:39:82:04:d9:d0:11:21:be:f9:61:41:72:9b:7e:05:f2:57:
        a2:b9
-----BEGIN CERTIFICATE-----
MIIDNDCCAp2gAwIBAgIBGTANBgkqhkiG9w0BAQQFADBmMQswCQYDVQQGEwJERTEP
MA0GA1UECBMGQmF5ZXJuMQ8wDQYDVQQHEwZNdW5pY2gxDTALBgNVBAoTBEhvbWUx
FTATBgNVBAsTDEFwYWNoZSBXU1M0SjEPMA0GA1UEAxMGV2VybmVyMB4XDTExMDUz
MDExNDc1NFoXDTIxMDUyNzExNDc1NFowYTELMAkGA1UEBhMCSUUxETAPBgNVBAgT
CExlaW5zdGVyMQ8wDQYDVQQHEwZEdWJsaW4xDzANBgNVBAoTBkFwYWNoZTEOMAwG
A1UECxMFV1NTNEoxDTALBgNVBAMTBENvbG0wgZ8wDQYJKoZIhvcNAQEBBQADgY0A
MIGJAoGBAIuRdX9XM114481ZN6riQXhClbZ9LathrzbwTVgHCYplE+6operaHm1J
zOlSryEbArI6u4tfjjN+DQclAM/j5nDOMUUIX4X+iTvdsSLXLGRz2/Q8JAAHu1tq
THzamhrIKT3goBR1ZWnzusopMp37E8i/vHPcwVO2q+qEuzikXJCfAgMBAAGjgfYw
gfMwCQYDVR0TBAIwADAsBglghkgBhvhCAQ0EHxYdT3BlblNTTCBHZW5lcmF0ZWQg
Q2VydGlmaWNhdGUwHQYDVR0OBBYEFBrU4M4NYQ/joKRDR2f4116FwsbKMIGYBgNV
HSMEgZAwgY2AFFYX7/Zri1n+Ixlo3njA4U1nfdBmoWqkaDBmMQswCQYDVQQGEwJE
RTEPMA0GA1UECBMGQmF5ZXJuMQ8wDQYDVQQHEwZNdW5pY2gxDTALBgNVBAoTBEhv
bWUxFTATBgNVBAsTDEFwYWNoZSBXU1M0SjEPMA0GA1UEAxMGV2VybmVyggkAjeEs
CmkRd9IwDQYJKoZIhvcNAQEEBQADgYEAmEOxAuOd0q9+W22C3vROaYoYR1pttL2V
DbKW5POxzsxcwIcG1joAkwTtffNjzR2Nebl6dAW18LqX7h38yQ2h4u/0p+0ZO67X
qZTCq6D1Ys61Y3rjXXJk514ujHrqB2t875TK7CG+M4Ba1Af2TDmCBNnQESG++WFB
cpt+BfJXork=
-----END CERTIFICATE-----
