Certificate:
    Data:
        Version: 3 (0x2)
        Serial Number: 22 (0x16)
        Signature Algorithm: md5WithRSAEncryption
        Issuer: C=DE, ST=Bayern, L=Munich, O=Home, OU=Apache WSS4J, CN=Werner
        Validity
            Not Before: Apr 24 11:29:21 2009 GMT
            Not After : Apr 22 11:29:21 2019 GMT
        Subject: C=IE, ST=Leinster, L=Dublin, O=Apache, OU=WSS4J, CN=Colm
        Subject Public Key Info:
            Public Key Algorithm: rsaEncryption
            RSA Public Key: (1024 bit)
                Modulus (1024 bit):
                    00:b5:f2:76:f4:dd:06:d6:db:a9:35:67:05:3a:40:
                    3b:45:1d:81:93:68:0c:d9:6d:96:4e:4f:1a:99:fe:
                    ab:55:f4:57:87:a2:62:ff:00:9b:84:d3:b8:78:10:
                    a2:4b:64:d9:39:c3:33:f2:92:8e:8e:44:f9:17:74:
                    e6:43:83:37:0e:52:2c:b4:7d:3d:15:a4:9d:5b:e4:
                    6d:ec:ef:f5:1c:0a:ed:63:e9:9f:08:04:1a:ae:c5:
                    7f:40:13:42:b2:83:c7:3a:ea:eb:9e:9b:a6:67:f5:
                    76:e2:af:30:ea:af:61:53:66:01:25:55:ac:64:89:
                    51:94:67:0d:7a:b4:d3:c2:87
                Exponent: 65537 (0x10001)
        X509v3 extensions:
            X509v3 Basic Constraints: 
                CA:FALSE
            Netscape Comment: 
                OpenSSL Generated Certificate
            X509v3 Subject Key Identifier: 
                A7:B7:1E:C6:7F:EC:AE:8B:61:2A:CE:40:38:1E:1F:AA:E3:A4:BA:AE
            X509v3 Authority Key Identifier: 
                keyid:56:17:EF:F6:6B:8B:59:FE:23:19:68:DE:78:C0:E1:4D:67:7D:D0:66
                DirName:/C=DE/ST=Bayern/L=Munich/O=Home/OU=Apache WSS4J/CN=Werner
                serial:8D:E1:2C:0A:69:11:77:D2

    Signature Algorithm: md5WithRSAEncryption
        49:5f:41:a9:bc:d8:6b:c7:86:e1:72:aa:f3:61:b4:3c:c0:44:
        75:27:9c:3d:8b:4a:e1:86:60:13:c7:25:7e:df:df:0f:a5:44:
        fc:c6:09:43:6b:1c:ee:f8:4d:98:7d:aa:84:00:fd:ca:da:40:
        11:56:01:87:f3:83:8e:50:f6:e6:5b:b8:b0:13:57:ad:6d:39:
        23:a2:4b:61:0b:0b:56:0b:2b:e6:0a:38:02:59:4e:e1:dd:f0:
        82:9b:71:15:cc:f3:33:68:13:d5:60:ec:25:01:fe:37:c9:4e:
        97:ef:bd:9a:b6:9b:85:ca:0a:13:e0:5d:ab:da:d5:35:c5:b8:
        65:e7
-----BEGIN CERTIFICATE-----
MIIDNDCCAp2gAwIBAgIBFjANBgkqhkiG9w0BAQQFADBmMQswCQYDVQQGEwJERTEP
MA0GA1UECBMGQmF5ZXJuMQ8wDQYDVQQHEwZNdW5pY2gxDTALBgNVBAoTBEhvbWUx
FTATBgNVBAsTDEFwYWNoZSBXU1M0SjEPMA0GA1UEAxMGV2VybmVyMB4XDTA5MDQy
NDExMjkyMVoXDTE5MDQyMjExMjkyMVowYTELMAkGA1UEBhMCSUUxETAPBgNVBAgT
CExlaW5zdGVyMQ8wDQYDVQQHEwZEdWJsaW4xDzANBgNVBAoTBkFwYWNoZTEOMAwG
A1UECxMFV1NTNEoxDTALBgNVBAMTBENvbG0wgZ8wDQYJKoZIhvcNAQEBBQADgY0A
MIGJAoGBALXydvTdBtbbqTVnBTpAO0UdgZNoDNltlk5PGpn+q1X0V4eiYv8Am4TT
uHgQoktk2TnDM/KSjo5E+Rd05kODNw5SLLR9PRWknVvkbezv9RwK7WPpnwgEGq7F
f0ATQrKDxzrq656bpmf1duKvMOqvYVNmASVVrGSJUZRnDXq008KHAgMBAAGjgfYw
gfMwCQYDVR0TBAIwADAsBglghkgBhvhCAQ0EHxYdT3BlblNTTCBHZW5lcmF0ZWQg
Q2VydGlmaWNhdGUwHQYDVR0OBBYEFKe3HsZ/7K6LYSrOQDgeH6rjpLquMIGYBgNV
HSMEgZAwgY2AFFYX7/Zri1n+Ixlo3njA4U1nfdBmoWqkaDBmMQswCQYDVQQGEwJE
RTEPMA0GA1UECBMGQmF5ZXJuMQ8wDQYDVQQHEwZNdW5pY2gxDTALBgNVBAoTBEhv
bWUxFTATBgNVBAsTDEFwYWNoZSBXU1M0SjEPMA0GA1UEAxMGV2VybmVyggkAjeEs
CmkRd9IwDQYJKoZIhvcNAQEEBQADgYEASV9BqbzYa8eG4XKq82G0PMBEdSecPYtK
4YZgE8clft/fD6VE/MYJQ2sc7vhNmH2qhAD9ytpAEVYBh/ODjlD25lu4sBNXrW05
I6JLYQsLVgsr5go4AllO4d3wgptxFczzM2gT1WDsJQH+N8lOl++9mrabhcoKE+Bd
q9rVNcW4Zec=
-----END CERTIFICATE-----
