Certificate:
    Data:
        Version: 3 (0x2)
        Serial Number: 23 (0x17)
        Signature Algorithm: md5WithRSAEncryption
        Issuer: C=DE, ST=Bayern, L=Munich, O=Home, OU=Apache WSS4J, CN=Werner
        Validity
            Not Before: Apr 24 13:41:19 2009 GMT
            Not After : Apr 22 13:41:19 2019 GMT
        Subject: C=IE, ST=Leinster, L=Dublin, O=Apache, OU=WSS4J, CN=Colm
        Subject Public Key Info:
            Public Key Algorithm: dsaEncryption
            DSA Public Key:
                pub: 
                    00:9f:77:97:cd:b8:3c:d1:d1:ab:78:8b:2a:22:8e:
                    c2:17:89:07:da:02:3a:62:6a:c0:d6:5e:61:b6:77:
                    2d:2b:17:b4:26:37:50:17:a3:f3:7e:94:5c:fc:a9:
                    6f:09:9c:d4:08:90:57:89:0c:38:d4:f8:06:4d:06:
                    e5:eb:62:90:89:57:af:7d:b1:3e:16:11:82:0c:38:
                    d7:39:02:2e:c3:78:d5:46:78:63:d6:65:07:fd:d7:
                    08:8d:13:76:77:6e:4f:6f:81:95:34:4c:e9:2e:4d:
                    6b:3a:10:ff:86:33:c8:d8:58:03:b0:d9:af:51:0c:
                    21:3a:10:15:b2:a0:a7:ff:a5
                P:   
                    00:fd:7f:53:81:1d:75:12:29:52:df:4a:9c:2e:ec:
                    e4:e7:f6:11:b7:52:3c:ef:44:00:c3:1e:3f:80:b6:
                    51:26:69:45:5d:40:22:51:fb:59:3d:8d:58:fa:bf:
                    c5:f5:ba:30:f6:cb:9b:55:6c:d7:81:3b:80:1d:34:
                    6f:f2:66:60:b7:6b:99:50:a5:a4:9f:9f:e8:04:7b:
                    10:22:c2:4f:bb:a9:d7:fe:b7:c6:1b:f8:3b:57:e7:
                    c6:a8:a6:15:0f:04:fb:83:f6:d3:c5:1e:c3:02:35:
                    54:13:5a:16:91:32:f6:75:f3:ae:2b:61:d7:2a:ef:
                    f2:22:03:19:9d:d1:48:01:c7
                Q:   
                    00:97:60:50:8f:15:23:0b:cc:b2:92:b9:82:a2:eb:
                    84:0b:f0:58:1c:f5
                G:   
                    00:f7:e1:a0:85:d6:9b:3d:de:cb:bc:ab:5c:36:b8:
                    57:b9:79:94:af:bb:fa:3a:ea:82:f9:57:4c:0b:3d:
                    07:82:67:51:59:57:8e:ba:d4:59:4f:e6:71:07:10:
                    81:80:b4:49:16:71:23:e8:4c:28:16:13:b7:cf:09:
                    32:8c:c8:a6:e1:3c:16:7a:8b:54:7c:8d:28:e0:a3:
                    ae:1e:2b:b3:a6:75:91:6e:a3:7f:0b:fa:21:35:62:
                    f1:fb:62:7a:01:24:3b:cc:a4:f1:be:a8:51:90:89:
                    a8:83:df:e1:5a:e5:9f:06:92:8b:66:5e:80:7b:55:
                    25:64:01:4c:3b:fe:cf:49:2a
        X509v3 extensions:
            X509v3 Basic Constraints: 
                CA:FALSE
            Netscape Comment: 
                OpenSSL Generated Certificate
            X509v3 Subject Key Identifier: 
                D8:35:28:37:8A:69:C4:9C:FF:44:D8:1C:08:3B:09:E1:2A:1C:3D:D9
            X509v3 Authority Key Identifier: 
                keyid:56:17:EF:F6:6B:8B:59:FE:23:19:68:DE:78:C0:E1:4D:67:7D:D0:66
                DirName:/C=DE/ST=Bayern/L=Munich/O=Home/OU=Apache WSS4J/CN=Werner
                serial:8D:E1:2C:0A:69:11:77:D2

    Signature Algorithm: md5WithRSAEncryption
        62:fc:07:c2:ee:62:95:9b:e6:bb:7f:46:9b:c7:c4:c4:9b:36:
        ec:cf:4b:1c:95:cf:ea:7f:31:5a:e7:f3:91:f8:82:54:a1:10:
        6d:4b:cc:a0:69:b2:19:20:2a:ef:c2:08:24:d7:3c:40:32:73:
        3e:d2:95:0d:f6:70:e1:ab:c2:cf:98:f0:42:f6:d4:a1:e7:75:
        cc:a2:fe:20:51:9b:e7:c5:1b:53:a9:11:8f:71:9a:fc:b9:43:
        43:d9:41:f6:13:ae:ea:e3:26:a6:db:b2:c6:38:95:3c:0f:81:
        af:a1:48:16:3e:2e:a5:8e:45:a3:36:dc:24:ca:f3:23:56:a3:
        46:6d
-----BEGIN CERTIFICATE-----
MIIETjCCA7egAwIBAgIBFzANBgkqhkiG9w0BAQQFADBmMQswCQYDVQQGEwJERTEP
MA0GA1UECBMGQmF5ZXJuMQ8wDQYDVQQHEwZNdW5pY2gxDTALBgNVBAoTBEhvbWUx
FTATBgNVBAsTDEFwYWNoZSBXU1M0SjEPMA0GA1UEAxMGV2VybmVyMB4XDTA5MDQy
NDEzNDExOVoXDTE5MDQyMjEzNDExOVowYTELMAkGA1UEBhMCSUUxETAPBgNVBAgT
CExlaW5zdGVyMQ8wDQYDVQQHEwZEdWJsaW4xDzANBgNVBAoTBkFwYWNoZTEOMAwG
A1UECxMFV1NTNEoxDTALBgNVBAMTBENvbG0wggG4MIIBLAYHKoZIzjgEATCCAR8C
gYEA/X9TgR11EilS30qcLuzk5/YRt1I870QAwx4/gLZRJmlFXUAiUftZPY1Y+r/F
9bow9subVWzXgTuAHTRv8mZgt2uZUKWkn5/oBHsQIsJPu6nX/rfGG/g7V+fGqKYV
DwT7g/bTxR7DAjVUE1oWkTL2dfOuK2HXKu/yIgMZndFIAccCFQCXYFCPFSMLzLKS
uYKi64QL8Fgc9QKBgQD34aCF1ps93su8q1w2uFe5eZSvu/o66oL5V0wLPQeCZ1FZ
V4661FlP5nEHEIGAtEkWcSPoTCgWE7fPCTKMyKbhPBZ6i1R8jSjgo64eK7OmdZFu
o38L+iE1YvH7YnoBJDvMpPG+qFGQiaiD3+Fa5Z8GkotmXoB7VSVkAUw7/s9JKgOB
hQACgYEAn3eXzbg80dGreIsqIo7CF4kH2gI6YmrA1l5htnctKxe0JjdQF6PzfpRc
/KlvCZzUCJBXiQw41PgGTQbl62KQiVevfbE+FhGCDDjXOQIuw3jVRnhj1mUH/dcI
jRN2d25Pb4GVNEzpLk1rOhD/hjPI2FgDsNmvUQwhOhAVsqCn/6WjgfYwgfMwCQYD
VR0TBAIwADAsBglghkgBhvhCAQ0EHxYdT3BlblNTTCBHZW5lcmF0ZWQgQ2VydGlm
aWNhdGUwHQYDVR0OBBYEFNg1KDeKacSc/0TYHAg7CeEqHD3ZMIGYBgNVHSMEgZAw
gY2AFFYX7/Zri1n+Ixlo3njA4U1nfdBmoWqkaDBmMQswCQYDVQQGEwJERTEPMA0G
A1UECBMGQmF5ZXJuMQ8wDQYDVQQHEwZNdW5pY2gxDTALBgNVBAoTBEhvbWUxFTAT
BgNVBAsTDEFwYWNoZSBXU1M0SjEPMA0GA1UEAxMGV2VybmVyggkAjeEsCmkRd9Iw
DQYJKoZIhvcNAQEEBQADgYEAYvwHwu5ilZvmu39Gm8fExJs27M9LHJXP6n8xWufz
kfiCVKEQbUvMoGmyGSAq78IIJNc8QDJzPtKVDfZw4avCz5jwQvbUoed1zKL+IFGb
58UbU6kRj3Ga/LlDQ9lB9hOu6uMmptuyxjiVPA+Br6FIFj4upY5FozbcJMrzI1aj
Rm0=
-----END CERTIFICATE-----
