Certificate:
    Data:
        Version: 3 (0x2)
        Serial Number: 21 (0x15)
        Signature Algorithm: md5WithRSAEncryption
        Issuer: C=DE, ST=Bayern, L=Munich, O=Home, OU=Apache WSS4J, CN=Werner
        Validity
            Not Before: Apr 24 10:42:50 2009 GMT
            Not After : Apr 22 10:42:50 2019 GMT
        Subject: C=IE, ST=Leinster, L=Dublin, O=Apache, OU=WSS4J, CN=Colm
        Subject Public Key Info:
            Public Key Algorithm: rsaEncryption
            RSA Public Key: (1024 bit)
                Modulus (1024 bit):
                    00:91:5c:2a:5d:45:52:d4:c2:23:0d:27:4c:c6:95:
                    c9:3a:96:fc:e9:57:9e:cc:9c:39:f0:1d:f1:b7:7c:
                    13:4d:b6:70:e8:f6:f7:38:69:b4:96:24:90:62:cb:
                    9f:df:db:d1:47:41:32:4b:4a:d5:1c:92:77:ff:f4:
                    17:c8:43:d3:4f:d9:4f:2c:f1:0d:1d:ab:44:62:74:
                    1f:13:1d:9b:2b:ba:be:82:ae:94:e5:e9:6e:50:f5:
                    4c:17:3d:93:6b:3b:ea:09:c2:e9:80:05:b8:e1:93:
                    e3:f3:af:f0:54:0d:41:90:6b:67:3e:81:71:2f:00:
                    fc:29:46:ea:b2:66:f9:d9:bd
                Exponent: 65537 (0x10001)
        X509v3 extensions:
            X509v3 Basic Constraints: 
                CA:FALSE
            Netscape Comment: 
                OpenSSL Generated Certificate
            X509v3 Subject Key Identifier: 
                99:DB:9A:CC:DB:43:C7:34:80:6B:A1:B6:E3:54:3A:2E:4F:F7:A2:0A
            X509v3 Authority Key Identifier: 
                keyid:56:17:EF:F6:6B:8B:59:FE:23:19:68:DE:78:C0:E1:4D:67:7D:D0:66
                DirName:/C=DE/ST=Bayern/L=Munich/O=Home/OU=Apache WSS4J/CN=Werner
                serial:8D:E1:2C:0A:69:11:77:D2

    Signature Algorithm: md5WithRSAEncryption
        0f:5d:ba:26:a2:39:ac:7a:c5:a3:cc:66:d3:6c:a9:4b:53:43:
        3a:24:c8:2e:21:76:11:65:2c:87:91:e5:03:19:aa:c2:a6:07:
        c6:0f:1f:13:af:03:4c:f0:17:83:79:cc:82:3e:13:1f:c1:3a:
        df:7a:d6:e4:c7:3c:54:bc:6a:70:6f:c7:86:58:94:fe:e0:6f:
        3b:9d:d0:13:07:ba:a5:0c:eb:05:1a:06:b1:e5:34:56:cc:62:
        8b:69:30:50:ef:b6:b5:dd:c0:ba:2e:11:2b:d5:58:b1:7a:6f:
        f2:77:e4:06:57:9f:0d:fd:ae:3f:a3:eb:4d:41:e9:1c:78:05:
        69:69
-----BEGIN CERTIFICATE-----
MIIDNDCCAp2gAwIBAgIBFTANBgkqhkiG9w0BAQQFADBmMQswCQYDVQQGEwJERTEP
MA0GA1UECBMGQmF5ZXJuMQ8wDQYDVQQHEwZNdW5pY2gxDTALBgNVBAoTBEhvbWUx
FTATBgNVBAsTDEFwYWNoZSBXU1M0SjEPMA0GA1UEAxMGV2VybmVyMB4XDTA5MDQy
NDEwNDI1MFoXDTE5MDQyMjEwNDI1MFowYTELMAkGA1UEBhMCSUUxETAPBgNVBAgT
CExlaW5zdGVyMQ8wDQYDVQQHEwZEdWJsaW4xDzANBgNVBAoTBkFwYWNoZTEOMAwG
A1UECxMFV1NTNEoxDTALBgNVBAMTBENvbG0wgZ8wDQYJKoZIhvcNAQEBBQADgY0A
MIGJAoGBAJFcKl1FUtTCIw0nTMaVyTqW/OlXnsycOfAd8bd8E022cOj29zhptJYk
kGLLn9/b0UdBMktK1RySd//0F8hD00/ZTyzxDR2rRGJ0HxMdmyu6voKulOXpblD1
TBc9k2s76gnC6YAFuOGT4/Ov8FQNQZBrZz6BcS8A/ClG6rJm+dm9AgMBAAGjgfYw
gfMwCQYDVR0TBAIwADAsBglghkgBhvhCAQ0EHxYdT3BlblNTTCBHZW5lcmF0ZWQg
Q2VydGlmaWNhdGUwHQYDVR0OBBYEFJnbmszbQ8c0gGuhtuNUOi5P96IKMIGYBgNV
HSMEgZAwgY2AFFYX7/Zri1n+Ixlo3njA4U1nfdBmoWqkaDBmMQswCQYDVQQGEwJE
RTEPMA0GA1UECBMGQmF5ZXJuMQ8wDQYDVQQHEwZNdW5pY2gxDTALBgNVBAoTBEhv
bWUxFTATBgNVBAsTDEFwYWNoZSBXU1M0SjEPMA0GA1UEAxMGV2VybmVyggkAjeEs
CmkRd9IwDQYJKoZIhvcNAQEEBQADgYEAD126JqI5rHrFo8xm02ypS1NDOiTILiF2
EWUsh5HlAxmqwqYHxg8fE68DTPAXg3nMgj4TH8E633rW5Mc8VLxqcG/HhliU/uBv
O53QEwe6pQzrBRoGseU0Vsxii2kwUO+2td3Aui4RK9VYsXpv8nfkBlefDf2uP6Pr
TUHpHHgFaWk=
-----END CERTIFICATE-----
