Certificate:
    Data:
        Version: 3 (0x2)
        Serial Number: 5 (0x5)
        Signature Algorithm: md5WithRSAEncryption
        Issuer: C=DE, ST=Bayern, L=Munich, O=Home, OU=Apache WSS4J, CN=Werner
        Validity
            Not Before: Mar  9 22:30:16 2005 GMT
            Not After : Mar  9 22:30:16 2006 GMT
        Subject: C=DE, ST=Bayern, L=Munich, O=Apache, OU=WSS4J, CN=wernerd
        Subject Public Key Info:
            Public Key Algorithm: rsaEncryption
            RSA Public Key: (1024 bit)
                Modulus (1024 bit):
                    00:c0:d2:bb:d4:e3:25:76:1b:6b:04:01:16:73:c2:
                    01:5d:4e:af:96:26:69:e1:ea:eb:e1:85:4a:7b:77:
                    d3:1e:bb:69:5a:86:d5:9a:a4:ee:d0:21:e1:46:4d:
                    f5:ff:c6:88:99:34:fd:eb:f9:7f:21:8b:0c:10:06:
                    9a:2c:c3:e5:4c:54:0e:4a:13:e8:3e:d9:f5:d8:b7:
                    0c:32:b9:54:b3:70:17:9f:a1:50:bc:bc:6d:b6:f5:
                    ef:81:02:b2:0c:91:84:4b:ab:53:8e:39:3f:b9:8e:
                    a1:60:58:c3:4a:f4:00:04:56:bc:6a:ec:eb:b6:0e:
                    3b:e4:0d:40:4d:88:b9:a8:27
                Exponent: 65537 (0x10001)
        X509v3 extensions:
            X509v3 Basic Constraints: 
                CA:FALSE
            Netscape Comment: 
                OpenSSL Generated Certificate
            X509v3 Subject Key Identifier: 
                F6:2D:93:05:11:91:92:2F:5C:EC:34:41:71:9C:B0:C0:33:31:60:47
            X509v3 Authority Key Identifier: 
                keyid:D0:C2:5B:D0:A4:D4:EB:05:FD:7C:4C:0E:A7:1E:2F:A0:CA:68:4F:3A
                DirName:/C=DE/ST=Bayern/L=Munich/O=Home/OU=Apache WSS4J/CN=Werner
                serial:00

    Signature Algorithm: md5WithRSAEncryption
        8e:60:b3:4e:8d:5b:8f:28:b4:81:b6:74:27:fa:29:f3:eb:00:
        b8:00:dc:46:df:19:72:b6:bb:25:e3:2a:c3:f0:69:e5:a8:18:
        72:07:f2:88:6f:a0:a7:e1:71:45:09:d5:a7:cb:05:59:61:54:
        5c:51:71:28:61:5e:00:3d:d9:17:93:fd:d1:33:f4:5a:fd:fe:
        48:78:77:f6:6a:ff:04:4c:b2:97:c7:3b:25:65:19:53:3d:6c:
        a1:af:85:58:17:14:06:71:1b:64:1a:c4:7f:b9:66:5a:ef:9d:
        6c:cf:a7:5e:b8:7a:19:82:ff:ee:92:b7:eb:aa:86:18:d2:13:
        1e:de
-----BEGIN CERTIFICATE-----
MIIDLTCCApagAwIBAgIBBTANBgkqhkiG9w0BAQQFADBmMQswCQYDVQQGEwJERTEP
MA0GA1UECBMGQmF5ZXJuMQ8wDQYDVQQHEwZNdW5pY2gxDTALBgNVBAoTBEhvbWUx
FTATBgNVBAsTDEFwYWNoZSBXU1M0SjEPMA0GA1UEAxMGV2VybmVyMB4XDTA1MDMw
OTIyMzAxNloXDTA2MDMwOTIyMzAxNlowYjELMAkGA1UEBhMCREUxDzANBgNVBAgT
BkJheWVybjEPMA0GA1UEBxMGTXVuaWNoMQ8wDQYDVQQKEwZBcGFjaGUxDjAMBgNV
BAsTBVdTUzRKMRAwDgYDVQQDEwd3ZXJuZXJkMIGfMA0GCSqGSIb3DQEBAQUAA4GN
ADCBiQKBgQDA0rvU4yV2G2sEARZzwgFdTq+WJmnh6uvhhUp7d9Meu2lahtWapO7Q
IeFGTfX/xoiZNP3r+X8hiwwQBposw+VMVA5KE+g+2fXYtwwyuVSzcBefoVC8vG22
9e+BArIMkYRLq1OOOT+5jqFgWMNK9AAEVrxq7Ou2DjvkDUBNiLmoJwIDAQABo4Hu
MIHrMAkGA1UdEwQCMAAwLAYJYIZIAYb4QgENBB8WHU9wZW5TU0wgR2VuZXJhdGVk
IENlcnRpZmljYXRlMB0GA1UdDgQWBBT2LZMFEZGSL1zsNEFxnLDAMzFgRzCBkAYD
VR0jBIGIMIGFgBTQwlvQpNTrBf18TA6nHi+gymhPOqFqpGgwZjELMAkGA1UEBhMC
REUxDzANBgNVBAgTBkJheWVybjEPMA0GA1UEBxMGTXVuaWNoMQ0wCwYDVQQKEwRI
b21lMRUwEwYDVQQLEwxBcGFjaGUgV1NTNEoxDzANBgNVBAMTBldlcm5lcoIBADAN
BgkqhkiG9w0BAQQFAAOBgQCOYLNOjVuPKLSBtnQn+inz6wC4ANxG3xlytrsl4yrD
8GnlqBhyB/KIb6Cn4XFFCdWnywVZYVRcUXEoYV4APdkXk/3RM/Ra/f5IeHf2av8E
TLKXxzslZRlTPWyhr4VYFxQGcRtkGsR/uWZa751sz6deuHoZgv/ukrfrqoYY0hMe
3g==
-----END CERTIFICATE-----
